00000000  66B81000          mov ax,0x10
00000004  8ED8              mov ds,ax
00000006  0F011D6F540000    lidt [0x546f]
0000000D  0F0115694C0000    lgdt [0x4c69]
00000014  66B81000          mov ax,0x10
00000018  8ED8              mov ds,ax
0000001A  8ED0              mov ss,ax
0000001C  BC00000900        mov esp,0x90000
00000021  66B81800          mov ax,0x18
00000025  8EE8              mov gs,ax
00000027  31C0              xor eax,eax
00000029  A300001000        mov [0x100000],eax
0000002E  3B0500000000      cmp eax,[0x0]
00000034  74FE              jz 0x34
00000036  E877000000        call 0xb2
0000003B  E81C000000        call 0x5c
00000040  6800000000        push dword 0x0
00000045  6800000000        push dword 0x0
0000004A  E8CE020000        call 0x31d
0000004F  B40F              mov ah,0xf
00000051  B04C              mov al,0x4c
00000053  6566A34E000000    mov [gs:0x4e],ax
0000005A  EBFE              jmp short 0x5a
0000005C  66B81000          mov ax,0x10
00000060  8EC0              mov es,ax
00000062  A100000900        mov eax,[0x90000]
00000067  C1E816            shr eax,0x16
0000006A  89C1              mov ecx,eax
0000006C  BF00001000        mov edi,0x100000
00000071  31C0              xor eax,eax
00000073  B807101000        mov eax,0x101007
00000078  AB                stosd
00000079  0500100000        add eax,0x1000
0000007E  E2F8              loop 0x78
00000080  A100000900        mov eax,[0x90000]
00000085  C1E80C            shr eax,0xc
00000088  89C1              mov ecx,eax
0000008A  BF00101000        mov edi,0x101000
0000008F  31C0              xor eax,eax
00000091  B807000000        mov eax,0x7
00000096  AB                stosd
00000097  0500100000        add eax,0x1000
0000009C  E2F8              loop 0x96
0000009E  B800001000        mov eax,0x100000
000000A3  0F22D8            mov cr3,eax
000000A6  0F20C0            mov eax,cr0
000000A9  0D00000080        or eax,0x80000000
000000AE  0F22C0            mov cr0,eax
000000B1  C3                ret
000000B2  B801000000        mov eax,0x1
000000B7  0FA2              cpuid
000000B9  81E201000000      and edx,0x1
000000BF  81FA01000000      cmp edx,0x1
000000C5  7411              jz 0xd8
000000C7  0F20C0            mov eax,cr0
000000CA  25FDFFFFFF        and eax,0xfffffffd
000000CF  0D24000000        or eax,0x24
000000D4  0F22C0            mov cr0,eax
000000D7  C3                ret
000000D8  0F20C0            mov eax,cr0
000000DB  25FBFFFFFF        and eax,0xfffffffb
000000E0  0D22000000        or eax,0x22
000000E5  0F22C0            mov cr0,eax
000000E8  C3                ret
000000E9  90                nop
000000EA  90                nop
000000EB  90                nop
000000EC  90                nop
000000ED  90                nop
000000EE  90                nop
000000EF  90                nop
000000F0  55                push ebp
000000F1  89E5              mov ebp,esp
000000F3  83EC08            sub esp,byte +0x8
000000F6  83EC08            sub esp,byte +0x8
000000F9  6A00              push byte +0x0
000000FB  6A70              push byte +0x70
000000FD  E8EE180000        call 0x19f0
00000102  83C410            add esp,byte +0x10
00000105  83EC0C            sub esp,byte +0xc
00000108  6A71              push byte +0x71
0000010A  E8D1180000        call 0x19e0
0000010F  83C410            add esp,byte +0x10
00000112  0FBEC0            movsx eax,al
00000115  A3C8D50000        mov [0xd5c8],eax
0000011A  83EC08            sub esp,byte +0x8
0000011D  6A02              push byte +0x2
0000011F  6A70              push byte +0x70
00000121  E8CA180000        call 0x19f0
00000126  83C410            add esp,byte +0x10
00000129  83EC0C            sub esp,byte +0xc
0000012C  6A71              push byte +0x71
0000012E  E8AD180000        call 0x19e0
00000133  83C410            add esp,byte +0x10
00000136  0FBEC0            movsx eax,al
00000139  A3CCD50000        mov [0xd5cc],eax
0000013E  83EC08            sub esp,byte +0x8
00000141  6A04              push byte +0x4
00000143  6A70              push byte +0x70
00000145  E8A6180000        call 0x19f0
0000014A  83C410            add esp,byte +0x10
0000014D  83EC0C            sub esp,byte +0xc
00000150  6A71              push byte +0x71
00000152  E889180000        call 0x19e0
00000157  83C410            add esp,byte +0x10
0000015A  0FBEC0            movsx eax,al
0000015D  A3D0D50000        mov [0xd5d0],eax
00000162  83EC08            sub esp,byte +0x8
00000165  6A06              push byte +0x6
00000167  6A70              push byte +0x70
00000169  E882180000        call 0x19f0
0000016E  83C410            add esp,byte +0x10
00000171  83EC0C            sub esp,byte +0xc
00000174  6A71              push byte +0x71
00000176  E865180000        call 0x19e0
0000017B  83C410            add esp,byte +0x10
0000017E  0FBEC0            movsx eax,al
00000181  A3D4D50000        mov [0xd5d4],eax
00000186  83EC08            sub esp,byte +0x8
00000189  6A07              push byte +0x7
0000018B  6A70              push byte +0x70
0000018D  E85E180000        call 0x19f0
00000192  83C410            add esp,byte +0x10
00000195  83EC0C            sub esp,byte +0xc
00000198  6A71              push byte +0x71
0000019A  E841180000        call 0x19e0
0000019F  83C410            add esp,byte +0x10
000001A2  0FBEC0            movsx eax,al
000001A5  A3D8D50000        mov [0xd5d8],eax
000001AA  83EC08            sub esp,byte +0x8
000001AD  6A08              push byte +0x8
000001AF  6A70              push byte +0x70
000001B1  E83A180000        call 0x19f0
000001B6  83C410            add esp,byte +0x10
000001B9  83EC0C            sub esp,byte +0xc
000001BC  6A71              push byte +0x71
000001BE  E81D180000        call 0x19e0
000001C3  83C410            add esp,byte +0x10
000001C6  0FBEC0            movsx eax,al
000001C9  A3DCD50000        mov [0xd5dc],eax
000001CE  83EC08            sub esp,byte +0x8
000001D1  6A09              push byte +0x9
000001D3  6A70              push byte +0x70
000001D5  E816180000        call 0x19f0
000001DA  83C410            add esp,byte +0x10
000001DD  83EC0C            sub esp,byte +0xc
000001E0  6A71              push byte +0x71
000001E2  E8F9170000        call 0x19e0
000001E7  83C410            add esp,byte +0x10
000001EA  0FBEC0            movsx eax,al
000001ED  A3E0D50000        mov [0xd5e0],eax
000001F2  8B0DC8D50000      mov ecx,[0xd5c8]
000001F8  83E10F            and ecx,byte +0xf
000001FB  A1C8D50000        mov eax,[0xd5c8]
00000200  89C2              mov edx,eax
00000202  C1FA04            sar edx,0x4
00000205  89D0              mov eax,edx
00000207  C1E002            shl eax,0x2
0000020A  01D0              add eax,edx
0000020C  D1E0              shl eax,1
0000020E  8D0408            lea eax,[eax+ecx]
00000211  A3C8D50000        mov [0xd5c8],eax
00000216  8B0DCCD50000      mov ecx,[0xd5cc]
0000021C  83E10F            and ecx,byte +0xf
0000021F  A1CCD50000        mov eax,[0xd5cc]
00000224  89C2              mov edx,eax
00000226  C1FA04            sar edx,0x4
00000229  89D0              mov eax,edx
0000022B  C1E002            shl eax,0x2
0000022E  01D0              add eax,edx
00000230  D1E0              shl eax,1
00000232  8D0408            lea eax,[eax+ecx]
00000235  A3CCD50000        mov [0xd5cc],eax
0000023A  8B0DD0D50000      mov ecx,[0xd5d0]
00000240  83E10F            and ecx,byte +0xf
00000243  A1D0D50000        mov eax,[0xd5d0]
00000248  89C2              mov edx,eax
0000024A  C1FA04            sar edx,0x4
0000024D  89D0              mov eax,edx
0000024F  C1E002            shl eax,0x2
00000252  01D0              add eax,edx
00000254  D1E0              shl eax,1
00000256  8D0408            lea eax,[eax+ecx]
00000259  A3D0D50000        mov [0xd5d0],eax
0000025E  8B0DD4D50000      mov ecx,[0xd5d4]
00000264  83E10F            and ecx,byte +0xf
00000267  A1D4D50000        mov eax,[0xd5d4]
0000026C  89C2              mov edx,eax
0000026E  C1FA04            sar edx,0x4
00000271  89D0              mov eax,edx
00000273  C1E002            shl eax,0x2
00000276  01D0              add eax,edx
00000278  D1E0              shl eax,1
0000027A  8D0408            lea eax,[eax+ecx]
0000027D  A3D4D50000        mov [0xd5d4],eax
00000282  8B0DD8D50000      mov ecx,[0xd5d8]
00000288  83E10F            and ecx,byte +0xf
0000028B  A1D8D50000        mov eax,[0xd5d8]
00000290  89C2              mov edx,eax
00000292  C1FA04            sar edx,0x4
00000295  89D0              mov eax,edx
00000297  C1E002            shl eax,0x2
0000029A  01D0              add eax,edx
0000029C  D1E0              shl eax,1
0000029E  8D0408            lea eax,[eax+ecx]
000002A1  A3D8D50000        mov [0xd5d8],eax
000002A6  8B0DDCD50000      mov ecx,[0xd5dc]
000002AC  83E10F            and ecx,byte +0xf
000002AF  A1DCD50000        mov eax,[0xd5dc]
000002B4  89C2              mov edx,eax
000002B6  C1FA04            sar edx,0x4
000002B9  89D0              mov eax,edx
000002BB  C1E002            shl eax,0x2
000002BE  01D0              add eax,edx
000002C0  D1E0              shl eax,1
000002C2  8D0408            lea eax,[eax+ecx]
000002C5  A3DCD50000        mov [0xd5dc],eax
000002CA  8B0DE0D50000      mov ecx,[0xd5e0]
000002D0  83E10F            and ecx,byte +0xf
000002D3  A1E0D50000        mov eax,[0xd5e0]
000002D8  89C2              mov edx,eax
000002DA  C1FA04            sar edx,0x4
000002DD  89D0              mov eax,edx
000002DF  C1E002            shl eax,0x2
000002E2  01D0              add eax,edx
000002E4  D1E0              shl eax,1
000002E6  8D0408            lea eax,[eax+ecx]
000002E9  A3E0D50000        mov [0xd5e0],eax
000002EE  B800000000        mov eax,0x0
000002F3  C9                leave
000002F4  C3                ret
000002F5  55                push ebp
000002F6  89E5              mov ebp,esp
000002F8  83EC08            sub esp,byte +0x8
000002FB  83EC0C            sub esp,byte +0xc
000002FE  6880400000        push dword 0x4080
00000303  E88E100000        call 0x1396
00000308  83C410            add esp,byte +0x10
0000030B  83EC0C            sub esp,byte +0xc
0000030E  6895400000        push dword 0x4095
00000313  E87E100000        call 0x1396
00000318  83C410            add esp,byte +0x10
0000031B  C9                leave
0000031C  C3                ret
0000031D  55                push ebp
0000031E  89E5              mov ebp,esp
00000320  83EC08            sub esp,byte +0x8
00000323  C705B0D500000000  mov dword [0xd5b0],0x0
         -0000
0000032D  C70578F600000080  mov dword [0xf678],0xb8000
         -0B00
00000337  83EC0C            sub esp,byte +0xc
0000033A  68B4D50000        push dword 0xd5b4
0000033F  E81E170000        call 0x1a62
00000344  83C410            add esp,byte +0x10
00000347  83EC08            sub esp,byte +0x8
0000034A  68B4D50000        push dword 0xd5b4
0000034F  68B8D50000        push dword 0xd5b8
00000354  E887170000        call 0x1ae0
00000359  83C410            add esp,byte +0x10
0000035C  83EC0C            sub esp,byte +0xc
0000035F  6870F60000        push dword 0xf670
00000364  E8EA160000        call 0x1a53
00000369  83C410            add esp,byte +0x10
0000036C  83EC08            sub esp,byte +0x8
0000036F  6870F60000        push dword 0xf670
00000374  6874F60000        push dword 0xf674
00000379  E862170000        call 0x1ae0
0000037E  83C410            add esp,byte +0x10
00000381  A174F60000        mov eax,[0xf674]
00000386  A38CA70000        mov [0xa78c],eax
0000038B  A1B8D50000        mov eax,[0xd5b8]
00000390  A384A70000        mov [0xa784],eax
00000395  E856FDFFFF        call 0xf0
0000039A  E849180000        call 0x1be8
0000039F  E858010000        call 0x4fc
000003A4  E876070000        call 0xb1f
000003A9  E8FB330000        call 0x37a9
000003AE  E8E10C0000        call 0x1094
000003B3  E82C340000        call 0x37e4
000003B8  E8810B0000        call 0xf3e
000003BD  E8CA360000        call 0x3a8c
000003C2  89E0              mov eax,esp
000003C4  6A0F              push byte +0xf
000003C6  6AFC              push byte -0x4
000003C8  6812320000        push dword 0x3212
000003CD  6A07              push byte +0x7
000003CF  68D5030000        push dword 0x3d5
000003D4  CF                iret
000003D5  B80F000000        mov eax,0xf
000003DA  8ED8              mov ds,ax
000003DC  8EC0              mov es,ax
000003DE  8EE0              mov fs,ax
000003E0  E810FFFFFF        call 0x2f5
000003E5  E8AA090000        call 0xd94
000003EA  A3A85F0000        mov [0x5fa8],eax
000003EF  E8A4160000        call 0x1a98
000003F4  A304F60000        mov [0xf604],eax
000003F9  E896090000        call 0xd94
000003FE  390504F60000      cmp [0xf604],eax
00000404  0F85C2000000      jnz near 0x4cc
0000040A  A13C6C0000        mov eax,[0x6c3c]
0000040F  C7808C0200000100  mov dword [eax+0x28c],0x1
         -0000
00000419  C70500F600000000  mov dword [0xf600],0x40000000
         -0040
00000423  A100F60000        mov eax,[0xf600]
00000428  C600C3            mov byte [eax],0xc3
0000042B  83EC0C            sub esp,byte +0xc
0000042E  68A8400000        push dword 0x40a8
00000433  E85E0F0000        call 0x1396
00000438  83C410            add esp,byte +0x10
0000043B  E858160000        call 0x1a98
00000440  A380A70000        mov [0xa780],eax
00000445  E84A090000        call 0xd94
0000044A  390580A70000      cmp [0xa780],eax
00000450  7526              jnz 0x478
00000452  A13C6C0000        mov eax,[0x6c3c]
00000457  C7808C0200000200  mov dword [eax+0x28c],0x2
         -0000
00000461  E825060000        call 0xa8b
00000466  83EC0C            sub esp,byte +0xc
00000469  68BA400000        push dword 0x40ba
0000046E  E8230F0000        call 0x1396
00000473  83C410            add esp,byte +0x10
00000476  EBEE              jmp short 0x466
00000478  E81B160000        call 0x1a98
0000047D  A3C0630000        mov [0x63c0],eax
00000482  E80D090000        call 0xd94
00000487  3905C0630000      cmp [0x63c0],eax
0000048D  7526              jnz 0x4b5
0000048F  A13C6C0000        mov eax,[0x6c3c]
00000494  C7808C0200000300  mov dword [eax+0x28c],0x3
         -0000
0000049E  E8E8050000        call 0xa8b
000004A3  83EC0C            sub esp,byte +0xc
000004A6  68C4400000        push dword 0x40c4
000004AB  E8E60E0000        call 0x1396
000004B0  83C410            add esp,byte +0x10
000004B3  EBEE              jmp short 0x4a3
000004B5  E8D1050000        call 0xa8b
000004BA  83EC0C            sub esp,byte +0xc
000004BD  68CE400000        push dword 0x40ce
000004C2  E8CF0E0000        call 0x1396
000004C7  83C410            add esp,byte +0x10
000004CA  EBEE              jmp short 0x4ba
000004CC  E8C7150000        call 0x1a98
000004D1  A32C6C0000        mov [0x6c2c],eax
000004D6  E8B9080000        call 0xd94
000004DB  3905A85F0000      cmp [0x5fa8],eax
000004E1  7512              jnz 0x4f5
000004E3  83EC0C            sub esp,byte +0xc
000004E6  68D8400000        push dword 0x40d8
000004EB  E8A60E0000        call 0x1396
000004F0  83C410            add esp,byte +0x10
000004F3  EBEE              jmp short 0x4e3
000004F5  E8F7200000        call 0x25f1
000004FA  EBF9              jmp short 0x4f5
000004FC  55                push ebp
000004FD  89E5              mov ebp,esp
000004FF  83EC08            sub esp,byte +0x8
00000502  6A00              push byte +0x0
00000504  6880090000        push dword 0x980
00000509  688F000000        push dword 0x8f
0000050E  6A00              push byte +0x0
00000510  E885020000        call 0x79a
00000515  83C410            add esp,byte +0x10
00000518  6A00              push byte +0x0
0000051A  6887090000        push dword 0x987
0000051F  688F000000        push dword 0x8f
00000524  6A01              push byte +0x1
00000526  E86F020000        call 0x79a
0000052B  83C410            add esp,byte +0x10
0000052E  6A00              push byte +0x0
00000530  6891090000        push dword 0x991
00000535  688E000000        push dword 0x8e
0000053A  6A02              push byte +0x2
0000053C  E859020000        call 0x79a
00000541  83C410            add esp,byte +0x10
00000544  6A03              push byte +0x3
00000546  689B090000        push dword 0x99b
0000054B  688F000000        push dword 0x8f
00000550  6A03              push byte +0x3
00000552  E843020000        call 0x79a
00000557  83C410            add esp,byte +0x10
0000055A  6A03              push byte +0x3
0000055C  68A5090000        push dword 0x9a5
00000561  688F000000        push dword 0x8f
00000566  6A04              push byte +0x4
00000568  E82D020000        call 0x79a
0000056D  83C410            add esp,byte +0x10
00000570  6A03              push byte +0x3
00000572  68AF090000        push dword 0x9af
00000577  688F000000        push dword 0x8f
0000057C  6A05              push byte +0x5
0000057E  E817020000        call 0x79a
00000583  83C410            add esp,byte +0x10
00000586  6A00              push byte +0x0
00000588  68B9090000        push dword 0x9b9
0000058D  688F000000        push dword 0x8f
00000592  6A06              push byte +0x6
00000594  E801020000        call 0x79a
00000599  83C410            add esp,byte +0x10
0000059C  6A00              push byte +0x0
0000059E  68C3090000        push dword 0x9c3
000005A3  688F000000        push dword 0x8f
000005A8  6A07              push byte +0x7
000005AA  E8EB010000        call 0x79a
000005AF  83C410            add esp,byte +0x10
000005B2  6A00              push byte +0x0
000005B4  68CD090000        push dword 0x9cd
000005B9  688F000000        push dword 0x8f
000005BE  6A08              push byte +0x8
000005C0  E8D5010000        call 0x79a
000005C5  83C410            add esp,byte +0x10
000005C8  6A00              push byte +0x0
000005CA  68D7090000        push dword 0x9d7
000005CF  688F000000        push dword 0x8f
000005D4  6A09              push byte +0x9
000005D6  E8BF010000        call 0x79a
000005DB  83C410            add esp,byte +0x10
000005DE  6A00              push byte +0x0
000005E0  68E1090000        push dword 0x9e1
000005E5  688F000000        push dword 0x8f
000005EA  6A0A              push byte +0xa
000005EC  E8A9010000        call 0x79a
000005F1  83C410            add esp,byte +0x10
000005F4  6A00              push byte +0x0
000005F6  68EB090000        push dword 0x9eb
000005FB  688F000000        push dword 0x8f
00000600  6A0B              push byte +0xb
00000602  E893010000        call 0x79a
00000607  83C410            add esp,byte +0x10
0000060A  6A00              push byte +0x0
0000060C  68F5090000        push dword 0x9f5
00000611  688F000000        push dword 0x8f
00000616  6A0C              push byte +0xc
00000618  E87D010000        call 0x79a
0000061D  83C410            add esp,byte +0x10
00000620  6A00              push byte +0x0
00000622  68FF090000        push dword 0x9ff
00000627  688F000000        push dword 0x8f
0000062C  6A0D              push byte +0xd
0000062E  E867010000        call 0x79a
00000633  83C410            add esp,byte +0x10
00000636  6A00              push byte +0x0
00000638  68090A0000        push dword 0xa09
0000063D  688F000000        push dword 0x8f
00000642  6A0E              push byte +0xe
00000644  E851010000        call 0x79a
00000649  83C410            add esp,byte +0x10
0000064C  6A00              push byte +0x0
0000064E  68130A0000        push dword 0xa13
00000653  688F000000        push dword 0x8f
00000658  6A10              push byte +0x10
0000065A  E83B010000        call 0x79a
0000065F  83C410            add esp,byte +0x10
00000662  B800000000        mov eax,0x0
00000667  C9                leave
00000668  C3                ret
00000669  55                push ebp
0000066A  89E5              mov ebp,esp
0000066C  83EC08            sub esp,byte +0x8
0000066F  8B4508            mov eax,[ebp+0x8]
00000672  8945FC            mov [ebp-0x4],eax
00000675  837DFC0E          cmp dword [ebp-0x4],byte +0xe
00000679  0F8484000000      jz near 0x703
0000067F  837DFC0E          cmp dword [ebp-0x4],byte +0xe
00000683  0F8F96000000      jg near 0x71f
00000689  837DFC00          cmp dword [ebp-0x4],byte +0x0
0000068D  0F888C000000      js near 0x71f
00000693  83EC08            sub esp,byte +0x8
00000696  8B4508            mov eax,[ebp+0x8]
00000699  C1E006            shl eax,0x6
0000069C  0580540000        add eax,0x5480
000006A1  50                push eax
000006A2  68E2400000        push dword 0x40e2
000006A7  E8390E0000        call 0x14e5
000006AC  83C410            add esp,byte +0x10
000006AF  83EC08            sub esp,byte +0x8
000006B2  FF7510            push dword [ebp+0x10]
000006B5  68E8400000        push dword 0x40e8
000006BA  E8260E0000        call 0x14e5
000006BF  83C410            add esp,byte +0x10
000006C2  83EC08            sub esp,byte +0x8
000006C5  FF7514            push dword [ebp+0x14]
000006C8  68F2400000        push dword 0x40f2
000006CD  E8130E0000        call 0x14e5
000006D2  83C410            add esp,byte +0x10
000006D5  83EC08            sub esp,byte +0x8
000006D8  FF7518            push dword [ebp+0x18]
000006DB  68FC400000        push dword 0x40fc
000006E0  E8000E0000        call 0x14e5
000006E5  83C410            add esp,byte +0x10
000006E8  837D0CFF          cmp dword [ebp+0xc],byte -0x1
000006EC  7441              jz 0x72f
000006EE  83EC08            sub esp,byte +0x8
000006F1  FF750C            push dword [ebp+0xc]
000006F4  680A410000        push dword 0x410a
000006F9  E8E70D0000        call 0x14e5
000006FE  83C410            add esp,byte +0x10
00000701  EB2C              jmp short 0x72f
00000703  83EC08            sub esp,byte +0x8
00000706  FF750C            push dword [ebp+0xc]
00000709  83EC04            sub esp,byte +0x4
0000070C  E8A7140000        call 0x1bb8
00000711  83C404            add esp,byte +0x4
00000714  50                push eax
00000715  E8F2190000        call 0x210c
0000071A  83C410            add esp,byte +0x10
0000071D  EB10              jmp short 0x72f
0000071F  83EC0C            sub esp,byte +0xc
00000722  6819410000        push dword 0x4119
00000727  E8B90D0000        call 0x14e5
0000072C  83C410            add esp,byte +0x10
0000072F  C9                leave
00000730  C3                ret
00000731  90                nop
00000732  90                nop
00000733  90                nop
00000734  55                push ebp
00000735  89E5              mov ebp,esp
00000737  83EC04            sub esp,byte +0x4
0000073A  8B4514            mov eax,[ebp+0x14]
0000073D  668945FE          mov [ebp-0x2],ax
00000741  8B5508            mov edx,[ebp+0x8]
00000744  8B4510            mov eax,[ebp+0x10]
00000747  668902            mov [edx],ax
0000074A  8B5508            mov edx,[ebp+0x8]
0000074D  8B450C            mov eax,[ebp+0xc]
00000750  66894202          mov [edx+0x2],ax
00000754  8B5508            mov edx,[ebp+0x8]
00000757  8B450C            mov eax,[ebp+0xc]
0000075A  C1E810            shr eax,0x10
0000075D  884204            mov [edx+0x4],al
00000760  8B5508            mov edx,[ebp+0x8]
00000763  8A45FE            mov al,[ebp-0x2]
00000766  884205            mov [edx+0x5],al
00000769  8B4D08            mov ecx,[ebp+0x8]
0000076C  8B4510            mov eax,[ebp+0x10]
0000076F  C1E810            shr eax,0x10
00000772  88C2              mov dl,al
00000774  83E20F            and edx,byte +0xf
00000777  668B45FE          mov ax,[ebp-0x2]
0000077B  66C1E808          shr ax,0x8
0000077F  83E0F0            and eax,byte -0x10
00000782  09D0              or eax,edx
00000784  884106            mov [ecx+0x6],al
00000787  8B5508            mov edx,[ebp+0x8]
0000078A  8B450C            mov eax,[ebp+0xc]
0000078D  C1E818            shr eax,0x18
00000790  884207            mov [edx+0x7],al
00000793  B800000000        mov eax,0x0
00000798  C9                leave
00000799  C3                ret
0000079A  55                push ebp
0000079B  89E5              mov ebp,esp
0000079D  83EC08            sub esp,byte +0x8
000007A0  8B4508            mov eax,[ebp+0x8]
000007A3  C1E003            shl eax,0x3
000007A6  030584A70000      add eax,[0xa784]
000007AC  8945FC            mov [ebp-0x4],eax
000007AF  8B4510            mov eax,[ebp+0x10]
000007B2  8945F8            mov [ebp-0x8],eax
000007B5  8B55FC            mov edx,[ebp-0x4]
000007B8  8B45F8            mov eax,[ebp-0x8]
000007BB  668902            mov [edx],ax
000007BE  8B45FC            mov eax,[ebp-0x4]
000007C1  66C740020800      mov word [eax+0x2],0x8
000007C7  8B45FC            mov eax,[ebp-0x4]
000007CA  C6400400          mov byte [eax+0x4],0x0
000007CE  8B55FC            mov edx,[ebp-0x4]
000007D1  8A4514            mov al,[ebp+0x14]
000007D4  C1E005            shl eax,0x5
000007D7  0B450C            or eax,[ebp+0xc]
000007DA  884205            mov [edx+0x5],al
000007DD  8B55FC            mov edx,[ebp-0x4]
000007E0  8B45F8            mov eax,[ebp-0x8]
000007E3  C1E810            shr eax,0x10
000007E6  66894206          mov [edx+0x6],ax
000007EA  B800000000        mov eax,0x0
000007EF  C9                leave
000007F0  C3                ret
000007F1  55                push ebp
000007F2  89E5              mov ebp,esp
000007F4  83EC08            sub esp,byte +0x8
000007F7  8B4508            mov eax,[ebp+0x8]
000007FA  668945FE          mov [ebp-0x2],ax
000007FE  668B45FE          mov ax,[ebp-0x2]
00000802  66C1E803          shr ax,0x3
00000806  0FB7C0            movzx eax,ax
00000809  C1E003            shl eax,0x3
0000080C  03058CA70000      add eax,[0xa78c]
00000812  8945F8            mov [ebp-0x8],eax
00000815  8B45F8            mov eax,[ebp-0x8]
00000818  0FBE4007          movsx eax,byte [eax+0x7]
0000081C  C1E018            shl eax,0x18
0000081F  8B55F8            mov edx,[ebp-0x8]
00000822  0FBE5204          movsx edx,byte [edx+0x4]
00000826  C1E210            shl edx,0x10
00000829  09D0              or eax,edx
0000082B  8B55F8            mov edx,[ebp-0x8]
0000082E  0FB75202          movzx edx,word [edx+0x2]
00000832  09D0              or eax,edx
00000834  C9                leave
00000835  C3                ret
00000836  90                nop
00000837  90                nop
00000838  90                nop
00000839  90                nop
0000083A  90                nop
0000083B  90                nop
0000083C  90                nop
0000083D  90                nop
0000083E  90                nop
0000083F  90                nop
00000840  E8BF020000        call 0xb04
00000845  81C404000000      add esp,0x4
0000084B  F4                hlt
0000084C  60                pusha
0000084D  1E                push ds
0000084E  06                push es
0000084F  0FA0              push fs
00000851  0FA8              push gs
00000853  89D6              mov esi,edx
00000855  668CD2            mov dx,ss
00000858  8EDA              mov ds,dx
0000085A  8EC2              mov es,dx
0000085C  8EE2              mov fs,dx
0000085E  89F2              mov edx,esi
00000860  89E6              mov esi,esp
00000862  686A080000        push dword 0x86a
00000867  FF6630            jmp near [esi+0x30]
0000086A  0FA9              pop gs
0000086C  0FA1              pop fs
0000086E  07                pop es
0000086F  1F                pop ds
00000870  61                popa
00000871  81C404000000      add esp,0x4
00000877  CF                iret
00000878  E8CFFFFFFF        call 0x84c
0000087D  B020              mov al,0x20
0000087F  E620              out 0x20,al
00000881  6800000000        push dword 0x0
00000886  FF1520F60000      call near [0xf620]
0000088C  59                pop ecx
0000088D  C3                ret
0000088E  E8B9FFFFFF        call 0x84c
00000893  B020              mov al,0x20
00000895  E620              out 0x20,al
00000897  6801000000        push dword 0x1
0000089C  FF1524F60000      call near [0xf624]
000008A2  59                pop ecx
000008A3  C3                ret
000008A4  6803000000        push dword 0x3
000008A9  EB95              jmp short 0x840
000008AB  6804000000        push dword 0x4
000008B0  EB8E              jmp short 0x840
000008B2  6805000000        push dword 0x5
000008B7  EB87              jmp short 0x840
000008B9  E88EFFFFFF        call 0x84c
000008BE  B020              mov al,0x20
000008C0  E620              out 0x20,al
000008C2  6806000000        push dword 0x6
000008C7  FF1538F60000      call near [0xf638]
000008CD  59                pop ecx
000008CE  C3                ret
000008CF  6807000000        push dword 0x7
000008D4  E967FFFFFF        jmp 0x840
000008D9  6808000000        push dword 0x8
000008DE  E95DFFFFFF        jmp 0x840
000008E3  680C000000        push dword 0xc
000008E8  E953FFFFFF        jmp 0x840
000008ED  680D000000        push dword 0xd
000008F2  E949FFFFFF        jmp 0x840
000008F7  E850FFFFFF        call 0x84c
000008FC  B020              mov al,0x20
000008FE  E6A0              out 0xa0,al
00000900  6800000000        push dword 0x0
00000905  FF1520F60000      call near [0xf620]
0000090B  59                pop ecx
0000090C  C3                ret
0000090D  8F0580590000      pop dword [0x5980]
00000913  C70584590000FFFF  mov dword [0x5984],0xffffffff
         -FFFF
0000091D  E911000000        jmp 0x933
00000922  8F0580590000      pop dword [0x5980]
00000928  8F0584590000      pop dword [0x5984]
0000092E  E900000000        jmp 0x933
00000933  50                push eax
00000934  8B442404          mov eax,[esp+0x4]
00000938  A388590000        mov [0x5988],eax
0000093D  8B442408          mov eax,[esp+0x8]
00000941  A38C590000        mov [0x598c],eax
00000946  8B44240C          mov eax,[esp+0xc]
0000094A  A390590000        mov [0x5990],eax
0000094F  58                pop eax
00000950  E8F7FEFFFF        call 0x84c
00000955  FF3590590000      push dword [0x5990]
0000095B  FF358C590000      push dword [0x598c]
00000961  FF3588590000      push dword [0x5988]
00000967  FF3584590000      push dword [0x5984]
0000096D  FF3580590000      push dword [0x5980]
00000973  E8F1FCFFFF        call 0x669
00000978  81C414000000      add esp,0x14
0000097E  FA                cli
0000097F  C3                ret
00000980  6800000000        push dword 0x0
00000985  EB86              jmp short 0x90d
00000987  6801000000        push dword 0x1
0000098C  E97CFFFFFF        jmp 0x90d
00000991  6802000000        push dword 0x2
00000996  E972FFFFFF        jmp 0x90d
0000099B  6803000000        push dword 0x3
000009A0  E968FFFFFF        jmp 0x90d
000009A5  6804000000        push dword 0x4
000009AA  E95EFFFFFF        jmp 0x90d
000009AF  6805000000        push dword 0x5
000009B4  E954FFFFFF        jmp 0x90d
000009B9  6806000000        push dword 0x6
000009BE  E94AFFFFFF        jmp 0x90d
000009C3  6807000000        push dword 0x7
000009C8  E940FFFFFF        jmp 0x90d
000009CD  6808000000        push dword 0x8
000009D2  E94BFFFFFF        jmp 0x922
000009D7  6809000000        push dword 0x9
000009DC  E92CFFFFFF        jmp 0x90d
000009E1  680A000000        push dword 0xa
000009E6  E937FFFFFF        jmp 0x922
000009EB  680B000000        push dword 0xb
000009F0  E92DFFFFFF        jmp 0x922
000009F5  680C000000        push dword 0xc
000009FA  E923FFFFFF        jmp 0x922
000009FF  680D000000        push dword 0xd
00000A04  E919FFFFFF        jmp 0x922
00000A09  680E000000        push dword 0xe
00000A0E  E90FFFFFFF        jmp 0x922
00000A13  6810000000        push dword 0x10
00000A18  E9F0FEFFFF        jmp 0x90d
00000A1D  E82AFEFFFF        call 0x84c
00000A22  52                push edx
00000A23  51                push ecx
00000A24  53                push ebx
00000A25  FF148594590000    call near [eax*4+0x5994]
00000A2C  81C40C000000      add esp,0xc
00000A32  89462C            mov [esi+0x2c],eax
00000A35  FA                cli
00000A36  C3                ret
00000A37  8B4C2404          mov ecx,[esp+0x4]
00000A3B  9C                pushf
00000A3C  FA                cli
00000A3D  B401              mov ah,0x1
00000A3F  D2C4              rol ah,cl
00000A41  80F908            cmp cl,0x8
00000A44  7311              jnc 0xa57
00000A46  E421              in al,0x21
00000A48  84E0              test al,ah
00000A4A  751C              jnz 0xa68
00000A4C  08E0              or al,ah
00000A4E  E621              out 0x21,al
00000A50  9D                popf
00000A51  B801000000        mov eax,0x1
00000A56  C3                ret
00000A57  E4A1              in al,0xa1
00000A59  84E0              test al,ah
00000A5B  750B              jnz 0xa68
00000A5D  08E0              or al,ah
00000A5F  E6A1              out 0xa1,al
00000A61  9D                popf
00000A62  B801000000        mov eax,0x1
00000A67  C3                ret
00000A68  9D                popf
00000A69  31C0              xor eax,eax
00000A6B  C3                ret
00000A6C  8B4C2404          mov ecx,[esp+0x4]
00000A70  9C                pushf
00000A71  FA                cli
00000A72  B4FE              mov ah,0xfe
00000A74  D2C4              rol ah,cl
00000A76  80F908            cmp cl,0x8
00000A79  7308              jnc 0xa83
00000A7B  E421              in al,0x21
00000A7D  20E0              and al,ah
00000A7F  E621              out 0x21,al
00000A81  9D                popf
00000A82  C3                ret
00000A83  E4A1              in al,0xa1
00000A85  20E0              and al,ah
00000A87  E6A1              out 0xa1,al
00000A89  9D                popf
00000A8A  C3                ret
00000A8B  E870F5FF3F        call 0x40000000
00000A90  C3                ret
00000A91  E96AF5FF3F        jmp 0x40000000
00000A96  90                nop
00000A97  90                nop
00000A98  55                push ebp
00000A99  89E5              mov ebp,esp
00000A9B  83EC08            sub esp,byte +0x8
00000A9E  83EC08            sub esp,byte +0x8
00000AA1  6A34              push byte +0x34
00000AA3  6A43              push byte +0x43
00000AA5  E8460F0000        call 0x19f0
00000AAA  83C410            add esp,byte +0x10
00000AAD  83EC08            sub esp,byte +0x8
00000AB0  6AA1              push byte -0x5f
00000AB2  6A40              push byte +0x40
00000AB4  E8370F0000        call 0x19f0
00000AB9  83C410            add esp,byte +0x10
00000ABC  83EC08            sub esp,byte +0x8
00000ABF  6A59              push byte +0x59
00000AC1  6A40              push byte +0x40
00000AC3  E8280F0000        call 0x19f0
00000AC8  83C410            add esp,byte +0x10
00000ACB  83EC08            sub esp,byte +0x8
00000ACE  68EC0A0000        push dword 0xaec
00000AD3  6A00              push byte +0x0
00000AD5  E853010000        call 0xc2d
00000ADA  83C410            add esp,byte +0x10
00000ADD  83EC0C            sub esp,byte +0xc
00000AE0  6A00              push byte +0x0
00000AE2  E885FFFFFF        call 0xa6c
00000AE7  83C410            add esp,byte +0x10
00000AEA  C9                leave
00000AEB  C3                ret
00000AEC  55                push ebp
00000AED  89E5              mov ebp,esp
00000AEF  83EC08            sub esp,byte +0x8
00000AF2  A13C6C0000        mov eax,[0x6c3c]
00000AF7  FF886C020000      dec dword [eax+0x26c]
00000AFD  E83E010000        call 0xc40
00000B02  C9                leave
00000B03  C3                ret
00000B04  55                push ebp
00000B05  89E5              mov ebp,esp
00000B07  83EC08            sub esp,byte +0x8
00000B0A  83EC08            sub esp,byte +0x8
00000B0D  FF7508            push dword [ebp+0x8]
00000B10  682F410000        push dword 0x412f
00000B15  E87C080000        call 0x1396
00000B1A  83C410            add esp,byte +0x10
00000B1D  C9                leave
00000B1E  C3                ret
00000B1F  55                push ebp
00000B20  89E5              mov ebp,esp
00000B22  83EC08            sub esp,byte +0x8
00000B25  6A00              push byte +0x0
00000B27  6878080000        push dword 0x878
00000B2C  688E000000        push dword 0x8e
00000B31  6A20              push byte +0x20
00000B33  E862FCFFFF        call 0x79a
00000B38  83C410            add esp,byte +0x10
00000B3B  6A00              push byte +0x0
00000B3D  688E080000        push dword 0x88e
00000B42  688E000000        push dword 0x8e
00000B47  6A21              push byte +0x21
00000B49  E84CFCFFFF        call 0x79a
00000B4E  83C410            add esp,byte +0x10
00000B51  6A00              push byte +0x0
00000B53  68A4080000        push dword 0x8a4
00000B58  688E000000        push dword 0x8e
00000B5D  6A23              push byte +0x23
00000B5F  E836FCFFFF        call 0x79a
00000B64  83C410            add esp,byte +0x10
00000B67  6A00              push byte +0x0
00000B69  68AB080000        push dword 0x8ab
00000B6E  688E000000        push dword 0x8e
00000B73  6A24              push byte +0x24
00000B75  E820FCFFFF        call 0x79a
00000B7A  83C410            add esp,byte +0x10
00000B7D  6A00              push byte +0x0
00000B7F  68B2080000        push dword 0x8b2
00000B84  688E000000        push dword 0x8e
00000B89  6A25              push byte +0x25
00000B8B  E80AFCFFFF        call 0x79a
00000B90  83C410            add esp,byte +0x10
00000B93  6A00              push byte +0x0
00000B95  68B9080000        push dword 0x8b9
00000B9A  688E000000        push dword 0x8e
00000B9F  6A26              push byte +0x26
00000BA1  E8F4FBFFFF        call 0x79a
00000BA6  83C410            add esp,byte +0x10
00000BA9  6A00              push byte +0x0
00000BAB  68CF080000        push dword 0x8cf
00000BB0  688E000000        push dword 0x8e
00000BB5  6A27              push byte +0x27
00000BB7  E8DEFBFFFF        call 0x79a
00000BBC  83C410            add esp,byte +0x10
00000BBF  6A00              push byte +0x0
00000BC1  68D9080000        push dword 0x8d9
00000BC6  688E000000        push dword 0x8e
00000BCB  6A28              push byte +0x28
00000BCD  E8C8FBFFFF        call 0x79a
00000BD2  83C410            add esp,byte +0x10
00000BD5  6A00              push byte +0x0
00000BD7  68E3080000        push dword 0x8e3
00000BDC  688E000000        push dword 0x8e
00000BE1  6A2C              push byte +0x2c
00000BE3  E8B2FBFFFF        call 0x79a
00000BE8  83C410            add esp,byte +0x10
00000BEB  6A00              push byte +0x0
00000BED  68ED080000        push dword 0x8ed
00000BF2  688E000000        push dword 0x8e
00000BF7  6A2D              push byte +0x2d
00000BF9  E89CFBFFFF        call 0x79a
00000BFE  83C410            add esp,byte +0x10
00000C01  6A00              push byte +0x0
00000C03  68F7080000        push dword 0x8f7
00000C08  688E000000        push dword 0x8e
00000C0D  6A2E              push byte +0x2e
00000C0F  E886FBFFFF        call 0x79a
00000C14  83C410            add esp,byte +0x10
00000C17  E87CFEFFFF        call 0xa98
00000C1C  E840190000        call 0x2561
00000C21  E85F280000        call 0x3485
00000C26  B800000000        mov eax,0x0
00000C2B  C9                leave
00000C2C  C3                ret
00000C2D  55                push ebp
00000C2E  89E5              mov ebp,esp
00000C30  8B5508            mov edx,[ebp+0x8]
00000C33  8B450C            mov eax,[ebp+0xc]
00000C36  89049520F60000    mov [edx*4+0xf620],eax
00000C3D  C9                leave
00000C3E  C3                ret
00000C3F  90                nop
00000C40  55                push ebp
00000C41  89E5              mov ebp,esp
00000C43  83EC18            sub esp,byte +0x18
00000C46  C745F400000000    mov dword [ebp-0xc],0x0
00000C4D  837DF400          cmp dword [ebp-0xc],byte +0x0
00000C51  7405              jz 0xc58
00000C53  E9B0000000        jmp 0xd08
00000C58  C745F83F000000    mov dword [ebp-0x8],0x3f
00000C5F  8D45F8            lea eax,[ebp-0x8]
00000C62  FF08              dec dword [eax]
00000C64  837DF8FF          cmp dword [ebp-0x8],byte -0x1
00000C68  7502              jnz 0xc6c
00000C6A  EB50              jmp short 0xcbc
00000C6C  8B45F8            mov eax,[ebp-0x8]
00000C6F  833C8580A6000000  cmp dword [eax*4+0xa680],byte +0x0
00000C77  74E6              jz 0xc5f
00000C79  8B45F8            mov eax,[ebp-0x8]
00000C7C  8B048580A60000    mov eax,[eax*4+0xa680]
00000C83  83B87002000000    cmp dword [eax+0x270],byte +0x0
00000C8A  75D3              jnz 0xc5f
00000C8C  8B45F8            mov eax,[ebp-0x8]
00000C8F  8B148580A60000    mov edx,[eax*4+0xa680]
00000C96  8B45F4            mov eax,[ebp-0xc]
00000C99  3B826C020000      cmp eax,[edx+0x26c]
00000C9F  73BE              jnc 0xc5f
00000CA1  8B45F8            mov eax,[ebp-0x8]
00000CA4  8B048580A60000    mov eax,[eax*4+0xa680]
00000CAB  8B806C020000      mov eax,[eax+0x26c]
00000CB1  8945F4            mov [ebp-0xc],eax
00000CB4  8B45F8            mov eax,[ebp-0x8]
00000CB7  8945FC            mov [ebp-0x4],eax
00000CBA  EBA3              jmp short 0xc5f
00000CBC  837DF400          cmp dword [ebp-0xc],byte +0x0
00000CC0  758B              jnz 0xc4d
00000CC2  C745F83F000000    mov dword [ebp-0x8],0x3f
00000CC9  8D45F8            lea eax,[ebp-0x8]
00000CCC  FF08              dec dword [eax]
00000CCE  837DF8FF          cmp dword [ebp-0x8],byte -0x1
00000CD2  7505              jnz 0xcd9
00000CD4  E974FFFFFF        jmp 0xc4d
00000CD9  8B45F8            mov eax,[ebp-0x8]
00000CDC  833C8580A6000000  cmp dword [eax*4+0xa680],byte +0x0
00000CE4  74E3              jz 0xcc9
00000CE6  8B45F8            mov eax,[ebp-0x8]
00000CE9  8B148580A60000    mov edx,[eax*4+0xa680]
00000CF0  8B45F8            mov eax,[ebp-0x8]
00000CF3  8B048580A60000    mov eax,[eax*4+0xa680]
00000CFA  8B8074020000      mov eax,[eax+0x274]
00000D00  89826C020000      mov [edx+0x26c],eax
00000D06  EBC1              jmp short 0xcc9
00000D08  8B45FC            mov eax,[ebp-0x4]
00000D0B  40                inc eax
00000D0C  C1E002            shl eax,0x2
00000D0F  8D14C500000000    lea edx,[eax*8+0x0]
00000D16  8B45FC            mov eax,[ebp-0x4]
00000D19  8B0C8580A60000    mov ecx,[eax*4+0xa680]
00000D20  390D3C6C0000      cmp [0x6c3c],ecx
00000D26  740D              jz 0xd35
00000D28  668955EC          mov [ebp-0x14],dx
00000D2C  870D3C6C0000      xchg ecx,[0x6c3c]
00000D32  FF6DE8            jmp far [ebp-0x18]
00000D35  C9                leave
00000D36  C3                ret
00000D37  55                push ebp
00000D38  89E5              mov ebp,esp
00000D3A  83EC08            sub esp,byte +0x8
00000D3D  8B4508            mov eax,[ebp+0x8]
00000D40  8945FC            mov [ebp-0x4],eax
00000D43  A13C6C0000        mov eax,[0x6c3c]
00000D48  894508            mov [ebp+0x8],eax
00000D4B  8B4508            mov eax,[ebp+0x8]
00000D4E  C780700200000100  mov dword [eax+0x270],0x1
         -0000
00000D58  E8E3FEFFFF        call 0xc40
00000D5D  837DFC00          cmp dword [ebp-0x4],byte +0x0
00000D61  740D              jz 0xd70
00000D63  8B45FC            mov eax,[ebp-0x4]
00000D66  C780700200000000  mov dword [eax+0x270],0x0
         -0000
00000D70  C9                leave
00000D71  C3                ret
00000D72  55                push ebp
00000D73  89E5              mov ebp,esp
00000D75  837D0800          cmp dword [ebp+0x8],byte +0x0
00000D79  7414              jz 0xd8f
00000D7B  8B4508            mov eax,[ebp+0x8]
00000D7E  C780700200000000  mov dword [eax+0x270],0x0
         -0000
00000D88  C7450800000000    mov dword [ebp+0x8],0x0
00000D8F  C9                leave
00000D90  C3                ret
00000D91  90                nop
00000D92  90                nop
00000D93  90                nop
00000D94  55                push ebp
00000D95  89E5              mov ebp,esp
00000D97  A13C6C0000        mov eax,[0x6c3c]
00000D9C  8B8078020000      mov eax,[eax+0x278]
00000DA2  C9                leave
00000DA3  C3                ret
00000DA4  55                push ebp
00000DA5  89E5              mov ebp,esp
00000DA7  A13C6C0000        mov eax,[0x6c3c]
00000DAC  057C020000        add eax,0x27c
00000DB1  C9                leave
00000DB2  C3                ret
00000DB3  55                push ebp
00000DB4  89E5              mov ebp,esp
00000DB6  83EC08            sub esp,byte +0x8
00000DB9  C705AC6B00000100  mov dword [0x6bac],0x1
         -0000
00000DC3  C705B06B00000000  mov dword [0x6bb0],0x0
         -0000
00000DCD  C705B46B00000100  mov dword [0x6bb4],0x1
         -0000
00000DD7  C705B86B00000000  mov dword [0x6bb8],0x0
         -0000
00000DE1  C605BC6B000072    mov byte [0x6bbc],0x72
00000DE8  C605BD6B00006F    mov byte [0x6bbd],0x6f
00000DEF  C605BE6B00006F    mov byte [0x6bbe],0x6f
00000DF6  C605BF6B000074    mov byte [0x6bbf],0x74
00000DFD  68F8C00000        push dword 0xc0f8
00000E02  68FFFF0F00        push dword 0xfffff
00000E07  6A00              push byte +0x0
00000E09  68AC690000        push dword 0x69ac
00000E0E  E821F9FFFF        call 0x734
00000E13  83C410            add esp,byte +0x10
00000E16  68F2C00000        push dword 0xc0f2
00000E1B  68FFFF0F00        push dword 0xfffff
00000E20  6A00              push byte +0x0
00000E22  68B4690000        push dword 0x69b4
00000E27  E808F9FFFF        call 0x734
00000E2C  83C410            add esp,byte +0x10
00000E2F  68F8C00000        push dword 0xc0f8
00000E34  68FFFF0B00        push dword 0xbffff
00000E39  6800000040        push dword 0x40000000
00000E3E  68BC690000        push dword 0x69bc
00000E43  E8ECF8FFFF        call 0x734
00000E48  83C410            add esp,byte +0x10
00000E4B  68F2C00000        push dword 0xc0f2
00000E50  68FFFF0B00        push dword 0xbffff
00000E55  6800000040        push dword 0x40000000
00000E5A  68C4690000        push dword 0x69c4
00000E5F  E8D0F8FFFF        call 0x734
00000E64  83C410            add esp,byte +0x10
00000E67  C705CC6B00000000  mov dword [0x6bcc],0x0
         -0000
00000E71  C705D06B00000000  mov dword [0x6bd0],0x40000000
         -0040
00000E7B  C705D46B00000000  mov dword [0x6bd4],0x40000000
         -0040
00000E85  C705D86B0000FFFF  mov dword [0x6bd8],0xffffffff
         -FFFF
00000E8F  C705DC6B00000000  mov dword [0x6bdc],0x0
         -0000
00000E99  C705E06B00000000  mov dword [0x6be0],0x0
         -0000
00000EA3  C705E46B00000000  mov dword [0x6be4],0x0
         -0000
00000EAD  C705EC6B00000000  mov dword [0x6bec],0x0
         -0000
00000EB7  C705E86B00000000  mov dword [0x6be8],0x0
         -0000
00000EC1  C705A06900002B00  mov dword [0x69a0],0x2b
         -0000
00000ECB  C7055C6900000700  mov dword [0x695c],0x100007
         -1000
00000ED5  C7058C6900000700  mov dword [0x698c],0x7
         -0000
00000EDF  C705946900000F00  mov dword [0x6994],0xf
         -0000
00000EE9  C705486900001000  mov dword [0x6948],0x10
         -0000
00000EF3  C705446900000000  mov dword [0x6944],0x40000000
         -0040
00000EFD  83EC04            sub esp,byte +0x4
00000F00  68FFFFFF3F        push dword 0x3fffffff
00000F05  83EC08            sub esp,byte +0x8
00000F08  E8A30D0000        call 0x1cb0
00000F0D  83C408            add esp,byte +0x8
00000F10  C1E00C            shl eax,0xc
00000F13  50                push eax
00000F14  83EC04            sub esp,byte +0x4
00000F17  E8AD0C0000        call 0x1bc9
00000F1C  83C404            add esp,byte +0x4
00000F1F  50                push eax
00000F20  E81A110000        call 0x203f
00000F25  83C410            add esp,byte +0x10
00000F28  C705646900001232  mov dword [0x6964],0x3212
         -0000
00000F32  C70578690000FCFF  mov dword [0x6978],0xfffffffc
         -FFFF
00000F3C  C9                leave
00000F3D  C3                ret
00000F3E  55                push ebp
00000F3F  89E5              mov ebp,esp
00000F41  83EC08            sub esp,byte +0x8
00000F44  C70580A600004069  mov dword [0xa680],0x6940
         -0000
00000F4E  C7053C6C00004069  mov dword [0x6c3c],0x6940
         -0000
00000F58  E856FEFFFF        call 0xdb3
00000F5D  68E9000000        push dword 0xe9
00000F62  6A6B              push byte +0x6b
00000F64  6840690000        push dword 0x6940
00000F69  A18CA70000        mov eax,[0xa78c]
00000F6E  83C020            add eax,byte +0x20
00000F71  50                push eax
00000F72  E8BDF7FFFF        call 0x734
00000F77  83C410            add esp,byte +0x10
00000F7A  B820000000        mov eax,0x20
00000F7F  0F00D8            ltr ax
00000F82  6882000000        push dword 0x82
00000F87  6800020000        push dword 0x200
00000F8C  68AC690000        push dword 0x69ac
00000F91  A18CA70000        mov eax,[0xa78c]
00000F96  83C028            add eax,byte +0x28
00000F99  50                push eax
00000F9A  E895F7FFFF        call 0x734
00000F9F  83C410            add esp,byte +0x10
00000FA2  B82B000000        mov eax,0x2b
00000FA7  0F00D0            lldt ax
00000FAA  C745FC01000000    mov dword [ebp-0x4],0x1
00000FB1  837DFC3E          cmp dword [ebp-0x4],byte +0x3e
00000FB5  7E02              jng 0xfb9
00000FB7  EB15              jmp short 0xfce
00000FB9  8B45FC            mov eax,[ebp-0x4]
00000FBC  C7048580A6000000  mov dword [eax*4+0xa680],0x0
         -000000
00000FC7  8D45FC            lea eax,[ebp-0x4]
00000FCA  FF00              inc dword [eax]
00000FCC  EBE3              jmp short 0xfb1
00000FCE  B800000000        mov eax,0x0
00000FD3  C9                leave
00000FD4  C3                ret
00000FD5  90                nop
00000FD6  90                nop
00000FD7  90                nop
00000FD8  55                push ebp
00000FD9  89E5              mov ebp,esp
00000FDB  90                nop
00000FDC  8B4508            mov eax,[ebp+0x8]
00000FDF  833800            cmp dword [eax],byte +0x0
00000FE2  7EF8              jng 0xfdc
00000FE4  8B4508            mov eax,[ebp+0x8]
00000FE7  8B5508            mov edx,[ebp+0x8]
00000FEA  8B12              mov edx,[edx]
00000FEC  4A                dec edx
00000FED  8910              mov [eax],edx
00000FEF  C9                leave
00000FF0  C3                ret
00000FF1  55                push ebp
00000FF2  89E5              mov ebp,esp
00000FF4  8B4508            mov eax,[ebp+0x8]
00000FF7  8B5508            mov edx,[ebp+0x8]
00000FFA  8B12              mov edx,[edx]
00000FFC  42                inc edx
00000FFD  8910              mov [eax],edx
00000FFF  C9                leave
00001000  C3                ret
00001001  90                nop
00001002  90                nop
00001003  90                nop
00001004  55                push ebp
00001005  89E5              mov ebp,esp
00001007  83EC08            sub esp,byte +0x8
0000100A  83EC0C            sub esp,byte +0xc
0000100D  8B4510            mov eax,[ebp+0x10]
00001010  8B908C020000      mov edx,[eax+0x28c]
00001016  89D0              mov eax,edx
00001018  C1E002            shl eax,0x2
0000101B  01D0              add eax,edx
0000101D  C1E002            shl eax,0x2
00001020  01D0              add eax,edx
00001022  C1E003            shl eax,0x3
00001025  0570640000        add eax,0x6470
0000102A  50                push eax
0000102B  E8A8FFFFFF        call 0xfd8
00001030  83C410            add esp,byte +0x10
00001033  83EC04            sub esp,byte +0x4
00001036  FF750C            push dword [ebp+0xc]
00001039  FF7508            push dword [ebp+0x8]
0000103C  8B4510            mov eax,[ebp+0x10]
0000103F  8B908C020000      mov edx,[eax+0x28c]
00001045  89D0              mov eax,edx
00001047  C1E002            shl eax,0x2
0000104A  01D0              add eax,edx
0000104C  C1E002            shl eax,0x2
0000104F  01D0              add eax,edx
00001051  C1E003            shl eax,0x3
00001054  05E0630000        add eax,0x63e0
00001059  50                push eax
0000105A  E8D1290000        call 0x3a30
0000105F  83C410            add esp,byte +0x10
00001062  83EC0C            sub esp,byte +0xc
00001065  8B4510            mov eax,[ebp+0x10]
00001068  8B908C020000      mov edx,[eax+0x28c]
0000106E  89D0              mov eax,edx
00001070  C1E002            shl eax,0x2
00001073  01D0              add eax,edx
00001075  C1E002            shl eax,0x2
00001078  01D0              add eax,edx
0000107A  C1E003            shl eax,0x3
0000107D  0570640000        add eax,0x6470
00001082  50                push eax
00001083  E869FFFFFF        call 0xff1
00001088  83C410            add esp,byte +0x10
0000108B  B800000000        mov eax,0x0
00001090  C9                leave
00001091  C3                ret
00001092  90                nop
00001093  90                nop
00001094  55                push ebp
00001095  89E5              mov ebp,esp
00001097  83EC08            sub esp,byte +0x8
0000109A  6A03              push byte +0x3
0000109C  681D0A0000        push dword 0xa1d
000010A1  688F000000        push dword 0x8f
000010A6  6880000000        push dword 0x80
000010AB  E8EAF6FFFF        call 0x79a
000010B0  83C410            add esp,byte +0x10
000010B3  B800000000        mov eax,0x0
000010B8  C9                leave
000010B9  C3                ret
000010BA  90                nop
000010BB  90                nop
000010BC  55                push ebp
000010BD  89E5              mov ebp,esp
000010BF  83EC08            sub esp,byte +0x8
000010C2  C745FC00000000    mov dword [ebp-0x4],0x0
000010C9  837DFC3E          cmp dword [ebp-0x4],byte +0x3e
000010CD  7E02              jng 0x10d1
000010CF  EB1C              jmp short 0x10ed
000010D1  8B45FC            mov eax,[ebp-0x4]
000010D4  833C8580A6000000  cmp dword [eax*4+0xa680],byte +0x0
000010DC  7508              jnz 0x10e6
000010DE  8B45FC            mov eax,[ebp-0x4]
000010E1  8945F8            mov [ebp-0x8],eax
000010E4  EB0E              jmp short 0x10f4
000010E6  8D45FC            lea eax,[ebp-0x4]
000010E9  FF00              inc dword [eax]
000010EB  EBDC              jmp short 0x10c9
000010ED  C745F800000000    mov dword [ebp-0x8],0x0
000010F4  8B45F8            mov eax,[ebp-0x8]
000010F7  C9                leave
000010F8  C3                ret
000010F9  55                push ebp
000010FA  89E5              mov ebp,esp
000010FC  57                push edi
000010FD  56                push esi
000010FE  83EC10            sub esp,byte +0x10
00001101  E8B6FFFFFF        call 0x10bc
00001106  8945EC            mov [ebp-0x14],eax
00001109  E8A20B0000        call 0x1cb0
0000110E  C1E00C            shl eax,0xc
00001111  8945E8            mov [ebp-0x18],eax
00001114  8B55EC            mov edx,[ebp-0x14]
00001117  8B45E8            mov eax,[ebp-0x18]
0000111A  89049580A60000    mov [edx*4+0xa680],eax
00001121  8B45E8            mov eax,[ebp-0x18]
00001124  8B153C6C0000      mov edx,[0x6c3c]
0000112A  89C7              mov edi,eax
0000112C  89D6              mov esi,edx
0000112E  FC                cld
0000112F  B8AD000000        mov eax,0xad
00001134  89C1              mov ecx,eax
00001136  F3A5              rep movsd
00001138  8B45E8            mov eax,[ebp-0x18]
0000113B  C780700200000100  mov dword [eax+0x270],0x1
         -0000
00001145  8B55E8            mov edx,[ebp-0x18]
00001148  8B45EC            mov eax,[ebp-0x14]
0000114B  898278020000      mov [edx+0x278],eax
00001151  8B45E8            mov eax,[ebp-0x18]
00001154  C7806C0200000A00  mov dword [eax+0x26c],0xa
         -0000
0000115E  8B45E8            mov eax,[ebp-0x18]
00001161  C70000000000      mov dword [eax],0x0
00001167  E85D0A0000        call 0x1bc9
0000116C  8945F0            mov [ebp-0x10],eax
0000116F  E83C0B0000        call 0x1cb0
00001174  C1E00C            shl eax,0xc
00001177  8945F4            mov [ebp-0xc],eax
0000117A  8B55E8            mov edx,[ebp-0x18]
0000117D  8B45F4            mov eax,[ebp-0xc]
00001180  89421C            mov [edx+0x1c],eax
00001183  83EC08            sub esp,byte +0x8
00001186  FF75F4            push dword [ebp-0xc]
00001189  FF75F0            push dword [ebp-0x10]
0000118C  E8FF0C0000        call 0x1e90
00001191  83C410            add esp,byte +0x10
00001194  8B45E8            mov eax,[ebp-0x18]
00001197  C7400400000040    mov dword [eax+0x4],0x40000000
0000119E  83EC04            sub esp,byte +0x4
000011A1  68FFFFFF3F        push dword 0x3fffffff
000011A6  83EC08            sub esp,byte +0x8
000011A9  E8020B0000        call 0x1cb0
000011AE  83C408            add esp,byte +0x8
000011B1  C1E00C            shl eax,0xc
000011B4  50                push eax
000011B5  FF75F4            push dword [ebp-0xc]
000011B8  E8820E0000        call 0x203f
000011BD  83C410            add esp,byte +0x10
000011C0  8B45E8            mov eax,[ebp-0x18]
000011C3  C7400810000000    mov dword [eax+0x8],0x10
000011CA  8B55E8            mov edx,[ebp-0x18]
000011CD  8B454C            mov eax,[ebp+0x4c]
000011D0  894220            mov [edx+0x20],eax
000011D3  8B55E8            mov edx,[ebp-0x18]
000011D6  8B4554            mov eax,[ebp+0x54]
000011D9  894224            mov [edx+0x24],eax
000011DC  8B55E8            mov edx,[ebp-0x18]
000011DF  8B4544            mov eax,[ebp+0x44]
000011E2  894228            mov [edx+0x28],eax
000011E5  8B55E8            mov edx,[ebp-0x18]
000011E8  8B4540            mov eax,[ebp+0x40]
000011EB  89422C            mov [edx+0x2c],eax
000011EE  8B55E8            mov edx,[ebp-0x18]
000011F1  8B453C            mov eax,[ebp+0x3c]
000011F4  894230            mov [edx+0x30],eax
000011F7  8B55E8            mov edx,[ebp-0x18]
000011FA  8B4538            mov eax,[ebp+0x38]
000011FD  894234            mov [edx+0x34],eax
00001200  8B55E8            mov edx,[ebp-0x18]
00001203  8B4558            mov eax,[ebp+0x58]
00001206  894238            mov [edx+0x38],eax
00001209  8B55E8            mov edx,[ebp-0x18]
0000120C  8B4530            mov eax,[ebp+0x30]
0000120F  89423C            mov [edx+0x3c],eax
00001212  8B55E8            mov edx,[ebp-0x18]
00001215  8B452C            mov eax,[ebp+0x2c]
00001218  894240            mov [edx+0x40],eax
0000121B  8B55E8            mov edx,[ebp-0x18]
0000121E  8B4528            mov eax,[ebp+0x28]
00001221  894244            mov [edx+0x44],eax
00001224  8B55E8            mov edx,[ebp-0x18]
00001227  8B4520            mov eax,[ebp+0x20]
0000122A  894248            mov [edx+0x48],eax
0000122D  8B55E8            mov edx,[ebp-0x18]
00001230  8B4550            mov eax,[ebp+0x50]
00001233  89424C            mov [edx+0x4c],eax
00001236  8B55E8            mov edx,[ebp-0x18]
00001239  8B455C            mov eax,[ebp+0x5c]
0000123C  894250            mov [edx+0x50],eax
0000123F  8B55E8            mov edx,[ebp-0x18]
00001242  8B4524            mov eax,[ebp+0x24]
00001245  894254            mov [edx+0x54],eax
00001248  8B55E8            mov edx,[ebp-0x18]
0000124B  8B451C            mov eax,[ebp+0x1c]
0000124E  894258            mov [edx+0x58],eax
00001251  8B55E8            mov edx,[ebp-0x18]
00001254  8B4518            mov eax,[ebp+0x18]
00001257  89425C            mov [edx+0x5c],eax
0000125A  8B55E8            mov edx,[ebp-0x18]
0000125D  8B45EC            mov eax,[ebp-0x14]
00001260  40                inc eax
00001261  C1E002            shl eax,0x2
00001264  40                inc eax
00001265  C1E003            shl eax,0x3
00001268  83C003            add eax,byte +0x3
0000126B  894260            mov [edx+0x60],eax
0000126E  68E9000000        push dword 0xe9
00001273  6A6B              push byte +0x6b
00001275  FF75E8            push dword [ebp-0x18]
00001278  8B45EC            mov eax,[ebp-0x14]
0000127B  C1E005            shl eax,0x5
0000127E  03058CA70000      add eax,[0xa78c]
00001284  83C020            add eax,byte +0x20
00001287  50                push eax
00001288  E8A7F4FFFF        call 0x734
0000128D  83C410            add esp,byte +0x10
00001290  6882000000        push dword 0x82
00001295  6800020000        push dword 0x200
0000129A  8B45E8            mov eax,[ebp-0x18]
0000129D  83C06C            add eax,byte +0x6c
000012A0  50                push eax
000012A1  8B45EC            mov eax,[ebp-0x14]
000012A4  C1E005            shl eax,0x5
000012A7  03058CA70000      add eax,[0xa78c]
000012AD  83C028            add eax,byte +0x28
000012B0  50                push eax
000012B1  E87EF4FFFF        call 0x734
000012B6  83C410            add esp,byte +0x10
000012B9  8B45E8            mov eax,[ebp-0x18]
000012BC  C780700200000000  mov dword [eax+0x270],0x0
         -0000
000012C6  8B45EC            mov eax,[ebp-0x14]
000012C9  8D65F8            lea esp,[ebp-0x8]
000012CC  5E                pop esi
000012CD  5F                pop edi
000012CE  C9                leave
000012CF  C3                ret
000012D0  55                push ebp
000012D1  89E5              mov ebp,esp
000012D3  B800000000        mov eax,0x0
000012D8  C9                leave
000012D9  C3                ret
000012DA  90                nop
000012DB  90                nop
000012DC  90                nop
000012DD  90                nop
000012DE  90                nop
000012DF  90                nop
000012E0  55                push ebp
000012E1  89E5              mov ebp,esp
000012E3  C7450800000000    mov dword [ebp+0x8],0x0
000012EA  C9                leave
000012EB  C3                ret
000012EC  55                push ebp
000012ED  89E5              mov ebp,esp
000012EF  53                push ebx
000012F0  83EC54            sub esp,byte +0x54
000012F3  8B450C            mov eax,[ebp+0xc]
000012F6  8945C4            mov [ebp-0x3c],eax
000012F9  837D0800          cmp dword [ebp+0x8],byte +0x0
000012FD  7514              jnz 0x1313
000012FF  8B45C4            mov eax,[ebp-0x3c]
00001302  C60030            mov byte [eax],0x30
00001305  8D45C4            lea eax,[ebp-0x3c]
00001308  FF00              inc dword [eax]
0000130A  C745C001000000    mov dword [ebp-0x40],0x1
00001311  EB7A              jmp short 0x138d
00001313  C745F400000000    mov dword [ebp-0xc],0x0
0000131A  837D0800          cmp dword [ebp+0x8],byte +0x0
0000131E  7502              jnz 0x1322
00001320  EB37              jmp short 0x1359
00001322  8D45C8            lea eax,[ebp-0x38]
00001325  89C1              mov ecx,eax
00001327  034DF4            add ecx,[ebp-0xc]
0000132A  8B5508            mov edx,[ebp+0x8]
0000132D  89D0              mov eax,edx
0000132F  BB0A000000        mov ebx,0xa
00001334  BA00000000        mov edx,0x0
00001339  F7F3              div ebx
0000133B  8D4230            lea eax,[edx+0x30]
0000133E  8801              mov [ecx],al
00001340  8D45F4            lea eax,[ebp-0xc]
00001343  FF00              inc dword [eax]
00001345  8B5508            mov edx,[ebp+0x8]
00001348  B8CDCCCCCC        mov eax,0xcccccccd
0000134D  F7E2              mul edx
0000134F  89D0              mov eax,edx
00001351  C1E803            shr eax,0x3
00001354  894508            mov [ebp+0x8],eax
00001357  EBC1              jmp short 0x131a
00001359  8B45F4            mov eax,[ebp-0xc]
0000135C  8945F0            mov [ebp-0x10],eax
0000135F  8D45F4            lea eax,[ebp-0xc]
00001362  FF08              dec dword [eax]
00001364  837DF400          cmp dword [ebp-0xc],byte +0x0
00001368  7902              jns 0x136c
0000136A  EB1B              jmp short 0x1387
0000136C  8B45C4            mov eax,[ebp-0x3c]
0000136F  89C2              mov edx,eax
00001371  8D45C8            lea eax,[ebp-0x38]
00001374  0345F4            add eax,[ebp-0xc]
00001377  8A00              mov al,[eax]
00001379  8802              mov [edx],al
0000137B  8D45C4            lea eax,[ebp-0x3c]
0000137E  FF00              inc dword [eax]
00001380  8D45F4            lea eax,[ebp-0xc]
00001383  FF08              dec dword [eax]
00001385  EBDD              jmp short 0x1364
00001387  8B45F0            mov eax,[ebp-0x10]
0000138A  8945C0            mov [ebp-0x40],eax
0000138D  8B45C0            mov eax,[ebp-0x40]
00001390  83C454            add esp,byte +0x54
00001393  5B                pop ebx
00001394  C9                leave
00001395  C3                ret
00001396  55                push ebp
00001397  89E5              mov ebp,esp
00001399  81EC38010000      sub esp,0x138
0000139F  8D85E8FEFFFF      lea eax,[ebp+0xfffffee8]
000013A5  8985DCFEFFFF      mov [ebp+0xfffffedc],eax
000013AB  8D450C            lea eax,[ebp+0xc]
000013AE  8945F4            mov [ebp-0xc],eax
000013B1  8B4508            mov eax,[ebp+0x8]
000013B4  8985E4FEFFFF      mov [ebp+0xfffffee4],eax
000013BA  8B85E4FEFFFF      mov eax,[ebp+0xfffffee4]
000013C0  803800            cmp byte [eax],0x0
000013C3  7505              jnz 0x13ca
000013C5  E9F8000000        jmp 0x14c2
000013CA  8B85E4FEFFFF      mov eax,[ebp+0xfffffee4]
000013D0  803825            cmp byte [eax],0x25
000013D3  741F              jz 0x13f4
000013D5  8B85DCFEFFFF      mov eax,[ebp+0xfffffedc]
000013DB  89C2              mov edx,eax
000013DD  8B85E4FEFFFF      mov eax,[ebp+0xfffffee4]
000013E3  8A00              mov al,[eax]
000013E5  8802              mov [edx],al
000013E7  8D85DCFEFFFF      lea eax,[ebp+0xfffffedc]
000013ED  FF00              inc dword [eax]
000013EF  E9C1000000        jmp 0x14b5
000013F4  8D85E4FEFFFF      lea eax,[ebp+0xfffffee4]
000013FA  FF00              inc dword [eax]
000013FC  8B85E4FEFFFF      mov eax,[ebp+0xfffffee4]
00001402  0FBE00            movsx eax,byte [eax]
00001405  8985D4FEFFFF      mov [ebp+0xfffffed4],eax
0000140B  83BDD4FEFFFF64    cmp dword [ebp+0xfffffed4],byte +0x64
00001412  740B              jz 0x141f
00001414  83BDD4FEFFFF73    cmp dword [ebp+0xfffffed4],byte +0x73
0000141B  7439              jz 0x1456
0000141D  EB7C              jmp short 0x149b
0000141F  8D45F4            lea eax,[ebp-0xc]
00001422  830004            add dword [eax],byte +0x4
00001425  8B45F4            mov eax,[ebp-0xc]
00001428  83E804            sub eax,byte +0x4
0000142B  8B00              mov eax,[eax]
0000142D  8985D8FEFFFF      mov [ebp+0xfffffed8],eax
00001433  83EC08            sub esp,byte +0x8
00001436  FFB5DCFEFFFF      push dword [ebp+0xfffffedc]
0000143C  FFB5D8FEFFFF      push dword [ebp+0xfffffed8]
00001442  E8A5FEFFFF        call 0x12ec
00001447  83C410            add esp,byte +0x10
0000144A  89C2              mov edx,eax
0000144C  8D85DCFEFFFF      lea eax,[ebp+0xfffffedc]
00001452  0110              add [eax],edx
00001454  EB5F              jmp short 0x14b5
00001456  8D45F4            lea eax,[ebp-0xc]
00001459  830004            add dword [eax],byte +0x4
0000145C  8B45F4            mov eax,[ebp-0xc]
0000145F  83E804            sub eax,byte +0x4
00001462  8B00              mov eax,[eax]
00001464  8985E0FEFFFF      mov [ebp+0xfffffee0],eax
0000146A  8B85E0FEFFFF      mov eax,[ebp+0xfffffee0]
00001470  803800            cmp byte [eax],0x0
00001473  7502              jnz 0x1477
00001475  EB3E              jmp short 0x14b5
00001477  8B85DCFEFFFF      mov eax,[ebp+0xfffffedc]
0000147D  89C2              mov edx,eax
0000147F  8B85E0FEFFFF      mov eax,[ebp+0xfffffee0]
00001485  8A00              mov al,[eax]
00001487  8802              mov [edx],al
00001489  8D85DCFEFFFF      lea eax,[ebp+0xfffffedc]
0000148F  FF00              inc dword [eax]
00001491  8D85E0FEFFFF      lea eax,[ebp+0xfffffee0]
00001497  FF00              inc dword [eax]
00001499  EBCF              jmp short 0x146a
0000149B  8B85DCFEFFFF      mov eax,[ebp+0xfffffedc]
000014A1  89C2              mov edx,eax
000014A3  8B85E4FEFFFF      mov eax,[ebp+0xfffffee4]
000014A9  8A00              mov al,[eax]
000014AB  8802              mov [edx],al
000014AD  8D85DCFEFFFF      lea eax,[ebp+0xfffffedc]
000014B3  FF00              inc dword [eax]
000014B5  8D85E4FEFFFF      lea eax,[ebp+0xfffffee4]
000014BB  FF00              inc dword [eax]
000014BD  E9F8FEFFFF        jmp 0x13ba
000014C2  83EC08            sub esp,byte +0x8
000014C5  8D95E8FEFFFF      lea edx,[ebp+0xfffffee8]
000014CB  8B85DCFEFFFF      mov eax,[ebp+0xfffffedc]
000014D1  29D0              sub eax,edx
000014D3  50                push eax
000014D4  8D85E8FEFFFF      lea eax,[ebp+0xfffffee8]
000014DA  50                push eax
000014DB  E8A0050000        call 0x1a80
000014E0  83C410            add esp,byte +0x10
000014E3  C9                leave
000014E4  C3                ret
000014E5  55                push ebp
000014E6  89E5              mov ebp,esp
000014E8  81EC38010000      sub esp,0x138
000014EE  8D85E8FEFFFF      lea eax,[ebp+0xfffffee8]
000014F4  8985DCFEFFFF      mov [ebp+0xfffffedc],eax
000014FA  8D450C            lea eax,[ebp+0xc]
000014FD  8945F4            mov [ebp-0xc],eax
00001500  8B4508            mov eax,[ebp+0x8]
00001503  8985E4FEFFFF      mov [ebp+0xfffffee4],eax
00001509  8B85E4FEFFFF      mov eax,[ebp+0xfffffee4]
0000150F  803800            cmp byte [eax],0x0
00001512  7505              jnz 0x1519
00001514  E9F8000000        jmp 0x1611
00001519  8B85E4FEFFFF      mov eax,[ebp+0xfffffee4]
0000151F  803825            cmp byte [eax],0x25
00001522  741F              jz 0x1543
00001524  8B85DCFEFFFF      mov eax,[ebp+0xfffffedc]
0000152A  89C2              mov edx,eax
0000152C  8B85E4FEFFFF      mov eax,[ebp+0xfffffee4]
00001532  8A00              mov al,[eax]
00001534  8802              mov [edx],al
00001536  8D85DCFEFFFF      lea eax,[ebp+0xfffffedc]
0000153C  FF00              inc dword [eax]
0000153E  E9C1000000        jmp 0x1604
00001543  8D85E4FEFFFF      lea eax,[ebp+0xfffffee4]
00001549  FF00              inc dword [eax]
0000154B  8B85E4FEFFFF      mov eax,[ebp+0xfffffee4]
00001551  0FBE00            movsx eax,byte [eax]
00001554  8985CCFEFFFF      mov [ebp+0xfffffecc],eax
0000155A  83BDCCFEFFFF64    cmp dword [ebp+0xfffffecc],byte +0x64
00001561  740B              jz 0x156e
00001563  83BDCCFEFFFF73    cmp dword [ebp+0xfffffecc],byte +0x73
0000156A  7439              jz 0x15a5
0000156C  EB7C              jmp short 0x15ea
0000156E  8D45F4            lea eax,[ebp-0xc]
00001571  830004            add dword [eax],byte +0x4
00001574  8B45F4            mov eax,[ebp-0xc]
00001577  83E804            sub eax,byte +0x4
0000157A  8B00              mov eax,[eax]
0000157C  8985D4FEFFFF      mov [ebp+0xfffffed4],eax
00001582  83EC08            sub esp,byte +0x8
00001585  FFB5DCFEFFFF      push dword [ebp+0xfffffedc]
0000158B  FFB5D4FEFFFF      push dword [ebp+0xfffffed4]
00001591  E856FDFFFF        call 0x12ec
00001596  83C410            add esp,byte +0x10
00001599  89C2              mov edx,eax
0000159B  8D85DCFEFFFF      lea eax,[ebp+0xfffffedc]
000015A1  0110              add [eax],edx
000015A3  EB5F              jmp short 0x1604
000015A5  8D45F4            lea eax,[ebp-0xc]
000015A8  830004            add dword [eax],byte +0x4
000015AB  8B45F4            mov eax,[ebp-0xc]
000015AE  83E804            sub eax,byte +0x4
000015B1  8B00              mov eax,[eax]
000015B3  8985E0FEFFFF      mov [ebp+0xfffffee0],eax
000015B9  8B85E0FEFFFF      mov eax,[ebp+0xfffffee0]
000015BF  803800            cmp byte [eax],0x0
000015C2  7502              jnz 0x15c6
000015C4  EB3E              jmp short 0x1604
000015C6  8B85DCFEFFFF      mov eax,[ebp+0xfffffedc]
000015CC  89C2              mov edx,eax
000015CE  8B85E0FEFFFF      mov eax,[ebp+0xfffffee0]
000015D4  8A00              mov al,[eax]
000015D6  8802              mov [edx],al
000015D8  8D85DCFEFFFF      lea eax,[ebp+0xfffffedc]
000015DE  FF00              inc dword [eax]
000015E0  8D85E0FEFFFF      lea eax,[ebp+0xfffffee0]
000015E6  FF00              inc dword [eax]
000015E8  EBCF              jmp short 0x15b9
000015EA  8B85DCFEFFFF      mov eax,[ebp+0xfffffedc]
000015F0  89C2              mov edx,eax
000015F2  8B85E4FEFFFF      mov eax,[ebp+0xfffffee4]
000015F8  8A00              mov al,[eax]
000015FA  8802              mov [edx],al
000015FC  8D85DCFEFFFF      lea eax,[ebp+0xfffffedc]
00001602  FF00              inc dword [eax]
00001604  8D85E4FEFFFF      lea eax,[ebp+0xfffffee4]
0000160A  FF00              inc dword [eax]
0000160C  E9F8FEFFFF        jmp 0x1509
00001611  8D85E8FEFFFF      lea eax,[ebp+0xfffffee8]
00001617  8B95DCFEFFFF      mov edx,[ebp+0xfffffedc]
0000161D  29C2              sub edx,eax
0000161F  89D0              mov eax,edx
00001621  8985D0FEFFFF      mov [ebp+0xfffffed0],eax
00001627  813DB0D50000000F  cmp dword [0xd5b0],0xf00
         -0000
00001631  7E0A              jng 0x163d
00001633  C705B0D500000000  mov dword [0xd5b0],0x0
         -0000
0000163D  C785D8FEFFFF0000  mov dword [ebp+0xfffffed8],0x0
         -0000
00001647  8B85D8FEFFFF      mov eax,[ebp+0xfffffed8]
0000164D  3B85D0FEFFFF      cmp eax,[ebp+0xfffffed0]
00001653  7C05              jl 0x165a
00001655  E984000000        jmp 0x16de
0000165A  8D85E8FEFFFF      lea eax,[ebp+0xfffffee8]
00001660  0385D8FEFFFF      add eax,[ebp+0xfffffed8]
00001666  0FBE00            movsx eax,byte [eax]
00001669  83F80A            cmp eax,byte +0xa
0000166C  7402              jz 0x1670
0000166E  EB2B              jmp short 0x169b
00001670  8B0DB0D50000      mov ecx,[0xd5b0]
00001676  B867666666        mov eax,0x66666667
0000167B  F7E9              imul ecx
0000167D  C1FA05            sar edx,0x5
00001680  89C8              mov eax,ecx
00001682  C1F81F            sar eax,0x1f
00001685  29C2              sub edx,eax
00001687  89D0              mov eax,edx
00001689  C1E002            shl eax,0x2
0000168C  01D0              add eax,edx
0000168E  C1E004            shl eax,0x4
00001691  83C050            add eax,byte +0x50
00001694  A3B0D50000        mov [0xd5b0],eax
00001699  EB36              jmp short 0x16d1
0000169B  A1B0D50000        mov eax,[0xd5b0]
000016A0  8D0C00            lea ecx,[eax+eax]
000016A3  8B1578F60000      mov edx,[0xf678]
000016A9  8D85E8FEFFFF      lea eax,[ebp+0xfffffee8]
000016AF  0385D8FEFFFF      add eax,[ebp+0xfffffed8]
000016B5  8A00              mov al,[eax]
000016B7  88040A            mov [edx+ecx],al
000016BA  A1B0D50000        mov eax,[0xd5b0]
000016BF  D1E0              shl eax,1
000016C1  030578F60000      add eax,[0xf678]
000016C7  40                inc eax
000016C8  C6000F            mov byte [eax],0xf
000016CB  FF05B0D50000      inc dword [0xd5b0]
000016D1  8D85D8FEFFFF      lea eax,[ebp+0xfffffed8]
000016D7  FF00              inc dword [eax]
000016D9  E969FFFFFF        jmp 0x1647
000016DE  C9                leave
000016DF  C3                ret
000016E0  55                push ebp
000016E1  89E5              mov ebp,esp
000016E3  57                push edi
000016E4  56                push esi
000016E5  8B750C            mov esi,[ebp+0xc]
000016E8  8B7D08            mov edi,[ebp+0x8]
000016EB  FC                cld
000016EC  AC                lodsb
000016ED  AA                stosb
000016EE  84C0              test al,al
000016F0  75FA              jnz 0x16ec
000016F2  8B4508            mov eax,[ebp+0x8]
000016F5  5E                pop esi
000016F6  5F                pop edi
000016F7  C9                leave
000016F8  C3                ret
000016F9  55                push ebp
000016FA  89E5              mov ebp,esp
000016FC  57                push edi
000016FD  56                push esi
000016FE  8B750C            mov esi,[ebp+0xc]
00001701  8B7D08            mov edi,[ebp+0x8]
00001704  8B4D10            mov ecx,[ebp+0x10]
00001707  FC                cld
00001708  49                dec ecx
00001709  7808              js 0x1713
0000170B  AC                lodsb
0000170C  AA                stosb
0000170D  84C0              test al,al
0000170F  75F7              jnz 0x1708
00001711  F3AA              rep stosb
00001713  8B4508            mov eax,[ebp+0x8]
00001716  5E                pop esi
00001717  5F                pop edi
00001718  C9                leave
00001719  C3                ret
0000171A  55                push ebp
0000171B  89E5              mov ebp,esp
0000171D  57                push edi
0000171E  56                push esi
0000171F  8B750C            mov esi,[ebp+0xc]
00001722  8B7D08            mov edi,[ebp+0x8]
00001725  B800000000        mov eax,0x0
0000172A  B9FFFFFFFF        mov ecx,0xffffffff
0000172F  FC                cld
00001730  F2AE              repne scasb
00001732  4F                dec edi
00001733  AC                lodsb
00001734  AA                stosb
00001735  84C0              test al,al
00001737  75FA              jnz 0x1733
00001739  8B4508            mov eax,[ebp+0x8]
0000173C  5E                pop esi
0000173D  5F                pop edi
0000173E  C9                leave
0000173F  C3                ret
00001740  55                push ebp
00001741  89E5              mov ebp,esp
00001743  57                push edi
00001744  56                push esi
00001745  8B750C            mov esi,[ebp+0xc]
00001748  8B7D08            mov edi,[ebp+0x8]
0000174B  B800000000        mov eax,0x0
00001750  B9FFFFFFFF        mov ecx,0xffffffff
00001755  FC                cld
00001756  F2AE              repne scasb
00001758  4F                dec edi
00001759  8B4D10            mov ecx,[ebp+0x10]
0000175C  49                dec ecx
0000175D  7806              js 0x1765
0000175F  AC                lodsb
00001760  AA                stosb
00001761  84C0              test al,al
00001763  75F7              jnz 0x175c
00001765  31C0              xor eax,eax
00001767  AA                stosb
00001768  8B4508            mov eax,[ebp+0x8]
0000176B  5E                pop esi
0000176C  5F                pop edi
0000176D  C9                leave
0000176E  C3                ret
0000176F  55                push ebp
00001770  89E5              mov ebp,esp
00001772  57                push edi
00001773  56                push esi
00001774  8B7D08            mov edi,[ebp+0x8]
00001777  8B750C            mov esi,[ebp+0xc]
0000177A  FC                cld
0000177B  AC                lodsb
0000177C  AE                scasb
0000177D  7508              jnz 0x1787
0000177F  84C0              test al,al
00001781  75F8              jnz 0x177b
00001783  31C0              xor eax,eax
00001785  EB09              jmp short 0x1790
00001787  B801000000        mov eax,0x1
0000178C  7C02              jl 0x1790
0000178E  F7D8              neg eax
00001790  5E                pop esi
00001791  5F                pop edi
00001792  C9                leave
00001793  C3                ret
00001794  55                push ebp
00001795  89E5              mov ebp,esp
00001797  57                push edi
00001798  56                push esi
00001799  8B7D08            mov edi,[ebp+0x8]
0000179C  8B750C            mov esi,[ebp+0xc]
0000179F  8B4D10            mov ecx,[ebp+0x10]
000017A2  FC                cld
000017A3  49                dec ecx
000017A4  7808              js 0x17ae
000017A6  AC                lodsb
000017A7  AE                scasb
000017A8  7508              jnz 0x17b2
000017AA  84C0              test al,al
000017AC  75F5              jnz 0x17a3
000017AE  31C0              xor eax,eax
000017B0  EB09              jmp short 0x17bb
000017B2  B801000000        mov eax,0x1
000017B7  7C02              jl 0x17bb
000017B9  F7D8              neg eax
000017BB  5E                pop esi
000017BC  5F                pop edi
000017BD  C9                leave
000017BE  C3                ret
000017BF  55                push ebp
000017C0  89E5              mov ebp,esp
000017C2  56                push esi
000017C3  83EC04            sub esp,byte +0x4
000017C6  8B450C            mov eax,[ebp+0xc]
000017C9  8845FB            mov [ebp-0x5],al
000017CC  8B7508            mov esi,[ebp+0x8]
000017CF  8A45FB            mov al,[ebp-0x5]
000017D2  FC                cld
000017D3  88C4              mov ah,al
000017D5  AC                lodsb
000017D6  38E0              cmp al,ah
000017D8  7409              jz 0x17e3
000017DA  84C0              test al,al
000017DC  75F7              jnz 0x17d5
000017DE  BE01000000        mov esi,0x1
000017E3  89F0              mov eax,esi
000017E5  48                dec eax
000017E6  83C404            add esp,byte +0x4
000017E9  5E                pop esi
000017EA  C9                leave
000017EB  C3                ret
000017EC  55                push ebp
000017ED  89E5              mov ebp,esp
000017EF  56                push esi
000017F0  83EC04            sub esp,byte +0x4
000017F3  8B450C            mov eax,[ebp+0xc]
000017F6  8845FB            mov [ebp-0x5],al
000017F9  BA00000000        mov edx,0x0
000017FE  8B7508            mov esi,[ebp+0x8]
00001801  8A45FB            mov al,[ebp-0x5]
00001804  FC                cld
00001805  88C4              mov ah,al
00001807  AC                lodsb
00001808  38E0              cmp al,ah
0000180A  7503              jnz 0x180f
0000180C  89F2              mov edx,esi
0000180E  4A                dec edx
0000180F  84C0              test al,al
00001811  75F4              jnz 0x1807
00001813  89D0              mov eax,edx
00001815  83C404            add esp,byte +0x4
00001818  5E                pop esi
00001819  C9                leave
0000181A  C3                ret
0000181B  55                push ebp
0000181C  89E5              mov ebp,esp
0000181E  56                push esi
0000181F  B800000000        mov eax,0x0
00001824  B9FFFFFFFF        mov ecx,0xffffffff
00001829  8B7508            mov esi,[ebp+0x8]
0000182C  FC                cld
0000182D  8B7D0C            mov edi,[ebp+0xc]
00001830  F2AE              repne scasb
00001832  F7D1              not ecx
00001834  49                dec ecx
00001835  89CA              mov edx,ecx
00001837  AC                lodsb
00001838  84C0              test al,al
0000183A  7409              jz 0x1845
0000183C  8B7D0C            mov edi,[ebp+0xc]
0000183F  89D1              mov ecx,edx
00001841  F2AE              repne scasb
00001843  74F2              jz 0x1837
00001845  4E                dec esi
00001846  89F0              mov eax,esi
00001848  2B4508            sub eax,[ebp+0x8]
0000184B  5E                pop esi
0000184C  C9                leave
0000184D  C3                ret
0000184E  55                push ebp
0000184F  89E5              mov ebp,esp
00001851  56                push esi
00001852  B800000000        mov eax,0x0
00001857  B9FFFFFFFF        mov ecx,0xffffffff
0000185C  8B7508            mov esi,[ebp+0x8]
0000185F  FC                cld
00001860  8B7D0C            mov edi,[ebp+0xc]
00001863  F2AE              repne scasb
00001865  F7D1              not ecx
00001867  49                dec ecx
00001868  89CA              mov edx,ecx
0000186A  AC                lodsb
0000186B  84C0              test al,al
0000186D  7409              jz 0x1878
0000186F  8B7D0C            mov edi,[ebp+0xc]
00001872  89D1              mov ecx,edx
00001874  F2AE              repne scasb
00001876  75F2              jnz 0x186a
00001878  4E                dec esi
00001879  89F0              mov eax,esi
0000187B  2B4508            sub eax,[ebp+0x8]
0000187E  5E                pop esi
0000187F  C9                leave
00001880  C3                ret
00001881  55                push ebp
00001882  89E5              mov ebp,esp
00001884  56                push esi
00001885  B800000000        mov eax,0x0
0000188A  B9FFFFFFFF        mov ecx,0xffffffff
0000188F  8B7508            mov esi,[ebp+0x8]
00001892  FC                cld
00001893  8B7D0C            mov edi,[ebp+0xc]
00001896  F2AE              repne scasb
00001898  F7D1              not ecx
0000189A  49                dec ecx
0000189B  89CA              mov edx,ecx
0000189D  AC                lodsb
0000189E  84C0              test al,al
000018A0  740C              jz 0x18ae
000018A2  8B7D0C            mov edi,[ebp+0xc]
000018A5  89D1              mov ecx,edx
000018A7  F2AE              repne scasb
000018A9  75F2              jnz 0x189d
000018AB  4E                dec esi
000018AC  EB02              jmp short 0x18b0
000018AE  31F6              xor esi,esi
000018B0  89F0              mov eax,esi
000018B2  5E                pop esi
000018B3  C9                leave
000018B4  C3                ret
000018B5  55                push ebp
000018B6  89E5              mov ebp,esp
000018B8  56                push esi
000018B9  B800000000        mov eax,0x0
000018BE  B9FFFFFFFF        mov ecx,0xffffffff
000018C3  8B7508            mov esi,[ebp+0x8]
000018C6  FC                cld
000018C7  8B7D0C            mov edi,[ebp+0xc]
000018CA  F2AE              repne scasb
000018CC  F7D1              not ecx
000018CE  49                dec ecx
000018CF  89CA              mov edx,ecx
000018D1  8B7D0C            mov edi,[ebp+0xc]
000018D4  89F0              mov eax,esi
000018D6  89D1              mov ecx,edx
000018D8  F3A6              repe cmpsb
000018DA  740A              jz 0x18e6
000018DC  96                xchg eax,esi
000018DD  46                inc esi
000018DE  8078FF00          cmp byte [eax-0x1],0x0
000018E2  75ED              jnz 0x18d1
000018E4  31C0              xor eax,eax
000018E6  5E                pop esi
000018E7  C9                leave
000018E8  C3                ret
000018E9  55                push ebp
000018EA  89E5              mov ebp,esp
000018EC  57                push edi
000018ED  8B7D08            mov edi,[ebp+0x8]
000018F0  B800000000        mov eax,0x0
000018F5  B9FFFFFFFF        mov ecx,0xffffffff
000018FA  FC                cld
000018FB  F2AE              repne scasb
000018FD  F7D1              not ecx
000018FF  49                dec ecx
00001900  89C8              mov eax,ecx
00001902  5F                pop edi
00001903  C9                leave
00001904  C3                ret
00001905  55                push ebp
00001906  89E5              mov ebp,esp
00001908  57                push edi
00001909  56                push esi
0000190A  8B4D10            mov ecx,[ebp+0x10]
0000190D  8B750C            mov esi,[ebp+0xc]
00001910  8B7D08            mov edi,[ebp+0x8]
00001913  FC                cld
00001914  F3A4              rep movsb
00001916  8B4508            mov eax,[ebp+0x8]
00001919  5E                pop esi
0000191A  5F                pop edi
0000191B  C9                leave
0000191C  C3                ret
0000191D  55                push ebp
0000191E  89E5              mov ebp,esp
00001920  57                push edi
00001921  56                push esi
00001922  8B4508            mov eax,[ebp+0x8]
00001925  3B450C            cmp eax,[ebp+0xc]
00001928  730E              jnc 0x1938
0000192A  8B4D10            mov ecx,[ebp+0x10]
0000192D  8B750C            mov esi,[ebp+0xc]
00001930  8B7D08            mov edi,[ebp+0x8]
00001933  FC                cld
00001934  F3A4              rep movsb
00001936  EB18              jmp short 0x1950
00001938  8B4D10            mov ecx,[ebp+0x10]
0000193B  8B4510            mov eax,[ebp+0x10]
0000193E  03450C            add eax,[ebp+0xc]
00001941  8D70FF            lea esi,[eax-0x1]
00001944  8B4510            mov eax,[ebp+0x10]
00001947  034508            add eax,[ebp+0x8]
0000194A  8D78FF            lea edi,[eax-0x1]
0000194D  FD                std
0000194E  F3A4              rep movsb
00001950  8B4508            mov eax,[ebp+0x8]
00001953  5E                pop esi
00001954  5F                pop edi
00001955  C9                leave
00001956  C3                ret
00001957  55                push ebp
00001958  89E5              mov ebp,esp
0000195A  57                push edi
0000195B  56                push esi
0000195C  B800000000        mov eax,0x0
00001961  8B7D08            mov edi,[ebp+0x8]
00001964  8B750C            mov esi,[ebp+0xc]
00001967  8B4D10            mov ecx,[ebp+0x10]
0000196A  FC                cld
0000196B  F3A6              repe cmpsb
0000196D  7409              jz 0x1978
0000196F  B801000000        mov eax,0x1
00001974  7C02              jl 0x1978
00001976  F7D8              neg eax
00001978  5E                pop esi
00001979  5F                pop edi
0000197A  C9                leave
0000197B  C3                ret
0000197C  55                push ebp
0000197D  89E5              mov ebp,esp
0000197F  57                push edi
00001980  83EC08            sub esp,byte +0x8
00001983  8B450C            mov eax,[ebp+0xc]
00001986  8845FB            mov [ebp-0x5],al
00001989  837D1000          cmp dword [ebp+0x10],byte +0x0
0000198D  7509              jnz 0x1998
0000198F  C745F400000000    mov dword [ebp-0xc],0x0
00001996  EB17              jmp short 0x19af
00001998  8A45FB            mov al,[ebp-0x5]
0000199B  8B7D08            mov edi,[ebp+0x8]
0000199E  8B4D10            mov ecx,[ebp+0x10]
000019A1  FC                cld
000019A2  F2AE              repne scasb
000019A4  7405              jz 0x19ab
000019A6  BF01000000        mov edi,0x1
000019AB  4F                dec edi
000019AC  897DF4            mov [ebp-0xc],edi
000019AF  8B45F4            mov eax,[ebp-0xc]
000019B2  83C408            add esp,byte +0x8
000019B5  5F                pop edi
000019B6  C9                leave
000019B7  C3                ret
000019B8  55                push ebp
000019B9  89E5              mov ebp,esp
000019BB  57                push edi
000019BC  83EC04            sub esp,byte +0x4
000019BF  8B450C            mov eax,[ebp+0xc]
000019C2  8845FB            mov [ebp-0x5],al
000019C5  8A45FB            mov al,[ebp-0x5]
000019C8  8B7D08            mov edi,[ebp+0x8]
000019CB  8B4D10            mov ecx,[ebp+0x10]
000019CE  FC                cld
000019CF  F3AA              rep stosb
000019D1  8B4508            mov eax,[ebp+0x8]
000019D4  83C404            add esp,byte +0x4
000019D7  5F                pop edi
000019D8  C9                leave
000019D9  C3                ret
000019DA  90                nop
000019DB  90                nop
000019DC  90                nop
000019DD  90                nop
000019DE  90                nop
000019DF  90                nop
000019E0  55                push ebp
000019E1  89E5              mov ebp,esp
000019E3  6652              push dx
000019E5  668B5508          mov dx,[ebp+0x8]
000019E9  EC                in al,dx
000019EA  665A              pop dx
000019EC  89EC              mov esp,ebp
000019EE  5D                pop ebp
000019EF  C3                ret
000019F0  55                push ebp
000019F1  89E5              mov ebp,esp
000019F3  6650              push ax
000019F5  6652              push dx
000019F7  668B5508          mov dx,[ebp+0x8]
000019FB  8A450C            mov al,[ebp+0xc]
000019FE  EE                out dx,al
000019FF  665A              pop dx
00001A01  6658              pop ax
00001A03  89EC              mov esp,ebp
00001A05  5D                pop ebp
00001A06  C3                ret
00001A07  55                push ebp
00001A08  89E5              mov ebp,esp
00001A0A  6652              push dx
00001A0C  668B5508          mov dx,[ebp+0x8]
00001A10  66ED              in ax,dx
00001A12  665A              pop dx
00001A14  89EC              mov esp,ebp
00001A16  5D                pop ebp
00001A17  C3                ret
00001A18  55                push ebp
00001A19  89E5              mov ebp,esp
00001A1B  6650              push ax
00001A1D  6652              push dx
00001A1F  668B5508          mov dx,[ebp+0x8]
00001A23  668B450C          mov ax,[ebp+0xc]
00001A27  66EF              out dx,ax
00001A29  665A              pop dx
00001A2B  6658              pop ax
00001A2D  89EC              mov esp,ebp
00001A2F  5D                pop ebp
00001A30  C3                ret
00001A31  90                nop
00001A32  90                nop
00001A33  90                nop
00001A34  90                nop
00001A35  90                nop
00001A36  90                nop
00001A37  90                nop
00001A38  90                nop
00001A39  90                nop
00001A3A  90                nop
00001A3B  90                nop
00001A3C  90                nop
00001A3D  90                nop
00001A3E  90                nop
00001A3F  90                nop
00001A40  55                push ebp
00001A41  89E5              mov ebp,esp
00001A43  53                push ebx
00001A44  9C                pushf
00001A45  5B                pop ebx
00001A46  81CB02300000      or ebx,0x3002
00001A4C  53                push ebx
00001A4D  9D                popf
00001A4E  5B                pop ebx
00001A4F  89EC              mov esp,ebp
00001A51  5D                pop ebp
00001A52  C3                ret
00001A53  55                push ebp
00001A54  89E5              mov ebp,esp
00001A56  53                push ebx
00001A57  8B5D08            mov ebx,[ebp+0x8]
00001A5A  0F0103            sgdt [ebx]
00001A5D  5B                pop ebx
00001A5E  89EC              mov esp,ebp
00001A60  5D                pop ebp
00001A61  C3                ret
00001A62  55                push ebp
00001A63  89E5              mov ebp,esp
00001A65  53                push ebx
00001A66  8B5D08            mov ebx,[ebp+0x8]
00001A69  0F010B            sidt [ebx]
00001A6C  5B                pop ebx
00001A6D  89EC              mov esp,ebp
00001A6F  5D                pop ebp
00001A70  C3                ret
00001A71  90                nop
00001A72  90                nop
00001A73  90                nop
00001A74  90                nop
00001A75  90                nop
00001A76  90                nop
00001A77  90                nop
00001A78  90                nop
00001A79  90                nop
00001A7A  90                nop
00001A7B  90                nop
00001A7C  90                nop
00001A7D  90                nop
00001A7E  90                nop
00001A7F  90                nop
00001A80  B800000000        mov eax,0x0
00001A85  8B153C6C0000      mov edx,[0x6c3c]
00001A8B  8B5C2404          mov ebx,[esp+0x4]
00001A8F  8B4C2408          mov ecx,[esp+0x8]
00001A93  CD80              int 0x80
00001A95  C3                ret
00001A96  90                nop
00001A97  90                nop
00001A98  55                push ebp
00001A99  89E5              mov ebp,esp
00001A9B  83EC08            sub esp,byte +0x8
00001A9E  B801000000        mov eax,0x1
00001AA3  CD80              int 0x80
00001AA5  8945FC            mov [ebp-0x4],eax
00001AA8  837DFC00          cmp dword [ebp-0x4],byte +0x0
00001AAC  7808              js 0x1ab6
00001AAE  8B45FC            mov eax,[ebp-0x4]
00001AB1  8945F8            mov [ebp-0x8],eax
00001AB4  EB07              jmp short 0x1abd
00001AB6  C745F8FFFFFFFF    mov dword [ebp-0x8],0xffffffff
00001ABD  8B45F8            mov eax,[ebp-0x8]
00001AC0  C9                leave
00001AC1  C3                ret
00001AC2  90                nop
00001AC3  90                nop
00001AC4  90                nop
00001AC5  90                nop
00001AC6  90                nop
00001AC7  90                nop
00001AC8  90                nop
00001AC9  90                nop
00001ACA  90                nop
00001ACB  90                nop
00001ACC  90                nop
00001ACD  90                nop
00001ACE  90                nop
00001ACF  90                nop
00001AD0  B802000000        mov eax,0x2
00001AD5  8B5C2404          mov ebx,[esp+0x4]
00001AD9  8B4C2408          mov ecx,[esp+0x8]
00001ADD  CD80              int 0x80
00001ADF  C3                ret
00001AE0  55                push ebp
00001AE1  89E5              mov ebp,esp
00001AE3  8B4D08            mov ecx,[ebp+0x8]
00001AE6  8B4508            mov eax,[ebp+0x8]
00001AE9  8B00              mov eax,[eax]
00001AEB  89C2              mov edx,eax
00001AED  C1E210            shl edx,0x10
00001AF0  8B450C            mov eax,[ebp+0xc]
00001AF3  8B00              mov eax,[eax]
00001AF5  C1E810            shr eax,0x10
00001AF8  8D0410            lea eax,[eax+edx]
00001AFB  8901              mov [ecx],eax
00001AFD  8B550C            mov edx,[ebp+0xc]
00001B00  8B450C            mov eax,[ebp+0xc]
00001B03  0FB700            movzx eax,word [eax]
00001B06  8902              mov [edx],eax
00001B08  B800000000        mov eax,0x0
00001B0D  C9                leave
00001B0E  C3                ret
00001B0F  90                nop
00001B10  55                push ebp
00001B11  89E5              mov ebp,esp
00001B13  8B4508            mov eax,[ebp+0x8]
00001B16  648A00            mov al,[fs:eax]
00001B19  0FB6C0            movzx eax,al
00001B1C  C9                leave
00001B1D  C3                ret
00001B1E  55                push ebp
00001B1F  89E5              mov ebp,esp
00001B21  83EC04            sub esp,byte +0x4
00001B24  8B4508            mov eax,[ebp+0x8]
00001B27  66648B00          mov ax,[fs:eax]
00001B2B  668945FE          mov [ebp-0x2],ax
00001B2F  0FB745FE          movzx eax,word [ebp-0x2]
00001B33  C9                leave
00001B34  C3                ret
00001B35  55                push ebp
00001B36  89E5              mov ebp,esp
00001B38  83EC04            sub esp,byte +0x4
00001B3B  8B4508            mov eax,[ebp+0x8]
00001B3E  648B00            mov eax,[fs:eax]
00001B41  8945FC            mov [ebp-0x4],eax
00001B44  8B45FC            mov eax,[ebp-0x4]
00001B47  C9                leave
00001B48  C3                ret
00001B49  55                push ebp
00001B4A  89E5              mov ebp,esp
00001B4C  83EC04            sub esp,byte +0x4
00001B4F  8B4508            mov eax,[ebp+0x8]
00001B52  8845FF            mov [ebp-0x1],al
00001B55  8A55FF            mov dl,[ebp-0x1]
00001B58  8B450C            mov eax,[ebp+0xc]
00001B5B  648810            mov [fs:eax],dl
00001B5E  C9                leave
00001B5F  C3                ret
00001B60  55                push ebp
00001B61  89E5              mov ebp,esp
00001B63  83EC04            sub esp,byte +0x4
00001B66  8B4508            mov eax,[ebp+0x8]
00001B69  668945FE          mov [ebp-0x2],ax
00001B6D  668B55FE          mov dx,[ebp-0x2]
00001B71  8B450C            mov eax,[ebp+0xc]
00001B74  66648910          mov [fs:eax],dx
00001B78  C9                leave
00001B79  C3                ret
00001B7A  55                push ebp
00001B7B  89E5              mov ebp,esp
00001B7D  8B5508            mov edx,[ebp+0x8]
00001B80  8B450C            mov eax,[ebp+0xc]
00001B83  648910            mov [fs:eax],edx
00001B86  C9                leave
00001B87  C3                ret
00001B88  55                push ebp
00001B89  89E5              mov ebp,esp
00001B8B  83EC04            sub esp,byte +0x4
00001B8E  668CE0            mov ax,fs
00001B91  668945FE          mov [ebp-0x2],ax
00001B95  0FB745FE          movzx eax,word [ebp-0x2]
00001B99  C9                leave
00001B9A  C3                ret
00001B9B  55                push ebp
00001B9C  89E5              mov ebp,esp
00001B9E  83EC04            sub esp,byte +0x4
00001BA1  668CD8            mov ax,ds
00001BA4  668945FE          mov [ebp-0x2],ax
00001BA8  0FB745FE          movzx eax,word [ebp-0x2]
00001BAC  C9                leave
00001BAD  C3                ret
00001BAE  55                push ebp
00001BAF  89E5              mov ebp,esp
00001BB1  8B4508            mov eax,[ebp+0x8]
00001BB4  8EE0              mov fs,ax
00001BB6  C9                leave
00001BB7  C3                ret
00001BB8  55                push ebp
00001BB9  89E5              mov ebp,esp
00001BBB  83EC04            sub esp,byte +0x4
00001BBE  0F20D0            mov eax,cr2
00001BC1  8945FC            mov [ebp-0x4],eax
00001BC4  8B45FC            mov eax,[ebp-0x4]
00001BC7  C9                leave
00001BC8  C3                ret
00001BC9  55                push ebp
00001BCA  89E5              mov ebp,esp
00001BCC  83EC04            sub esp,byte +0x4
00001BCF  0F20D8            mov eax,cr3
00001BD2  8945FC            mov [ebp-0x4],eax
00001BD5  8B45FC            mov eax,[ebp-0x4]
00001BD8  C9                leave
00001BD9  C3                ret
00001BDA  55                push ebp
00001BDB  89E5              mov ebp,esp
00001BDD  8B4508            mov eax,[ebp+0x8]
00001BE0  0F22D8            mov cr3,eax
00001BE3  C9                leave
00001BE4  C3                ret
00001BE5  90                nop
00001BE6  90                nop
00001BE7  90                nop
00001BE8  55                push ebp
00001BE9  89E5              mov ebp,esp
00001BEB  83EC04            sub esp,byte +0x4
00001BEE  C70580F600000000  mov dword [0xf680],0x0
         -0000
00001BF8  C705BCD500000000  mov dword [0xd5bc],0x0
         -0000
00001C02  A1BCD50000        mov eax,[0xd5bc]
00001C07  0500000900        add eax,0x90000
00001C0C  8B00              mov eax,[eax]
00001C0E  A360F60000        mov [0xf660],eax
00001C13  C745FC00000000    mov dword [ebp-0x4],0x0
00001C1A  817DFCFF010000    cmp dword [ebp-0x4],0x1ff
00001C21  7E02              jng 0x1c25
00001C23  EB12              jmp short 0x1c37
00001C25  8B45FC            mov eax,[ebp-0x4]
00001C28  0500D60000        add eax,0xd600
00001C2D  C600FA            mov byte [eax],0xfa
00001C30  8D45FC            lea eax,[ebp-0x4]
00001C33  FF00              inc dword [eax]
00001C35  EBE3              jmp short 0x1c1a
00001C37  C745FC00020000    mov dword [ebp-0x4],0x200
00001C3E  A160F60000        mov eax,[0xf660]
00001C43  C1E80C            shr eax,0xc
00001C46  3945FC            cmp [ebp-0x4],eax
00001C49  7202              jc 0x1c4d
00001C4B  EB12              jmp short 0x1c5f
00001C4D  8B45FC            mov eax,[ebp-0x4]
00001C50  0500D60000        add eax,0xd600
00001C55  C60000            mov byte [eax],0x0
00001C58  8D45FC            lea eax,[ebp-0x4]
00001C5B  FF00              inc dword [eax]
00001C5D  EBDF              jmp short 0x1c3e
00001C5F  B800000000        mov eax,0x0
00001C64  C9                leave
00001C65  C3                ret
00001C66  55                push ebp
00001C67  89E5              mov ebp,esp
00001C69  83EC08            sub esp,byte +0x8
00001C6C  C745FC00020000    mov dword [ebp-0x4],0x200
00001C73  817DFCFF030000    cmp dword [ebp-0x4],0x3ff
00001C7A  7E02              jng 0x1c7e
00001C7C  EB26              jmp short 0x1ca4
00001C7E  8B45FC            mov eax,[ebp-0x4]
00001C81  0500D60000        add eax,0xd600
00001C86  803800            cmp byte [eax],0x0
00001C89  7512              jnz 0x1c9d
00001C8B  8B45FC            mov eax,[ebp-0x4]
00001C8E  0500D60000        add eax,0xd600
00001C93  FE00              inc byte [eax]
00001C95  8B45FC            mov eax,[ebp-0x4]
00001C98  8945F8            mov [ebp-0x8],eax
00001C9B  EB0E              jmp short 0x1cab
00001C9D  8D45FC            lea eax,[ebp-0x4]
00001CA0  FF00              inc dword [eax]
00001CA2  EBCF              jmp short 0x1c73
00001CA4  C745F800000000    mov dword [ebp-0x8],0x0
00001CAB  8B45F8            mov eax,[ebp-0x8]
00001CAE  C9                leave
00001CAF  C3                ret
00001CB0  55                push ebp
00001CB1  89E5              mov ebp,esp
00001CB3  83EC08            sub esp,byte +0x8
00001CB6  C745FC00040000    mov dword [ebp-0x4],0x400
00001CBD  A160F60000        mov eax,[0xf660]
00001CC2  C1E80C            shr eax,0xc
00001CC5  3945FC            cmp [ebp-0x4],eax
00001CC8  7202              jc 0x1ccc
00001CCA  EB26              jmp short 0x1cf2
00001CCC  8B45FC            mov eax,[ebp-0x4]
00001CCF  0500D60000        add eax,0xd600
00001CD4  803800            cmp byte [eax],0x0
00001CD7  7512              jnz 0x1ceb
00001CD9  8B45FC            mov eax,[ebp-0x4]
00001CDC  0500D60000        add eax,0xd600
00001CE1  FE00              inc byte [eax]
00001CE3  8B45FC            mov eax,[ebp-0x4]
00001CE6  8945F8            mov [ebp-0x8],eax
00001CE9  EB0E              jmp short 0x1cf9
00001CEB  8D45FC            lea eax,[ebp-0x4]
00001CEE  FF00              inc dword [eax]
00001CF0  EBCB              jmp short 0x1cbd
00001CF2  C745F800000000    mov dword [ebp-0x8],0x0
00001CF9  8B45F8            mov eax,[ebp-0x8]
00001CFC  C9                leave
00001CFD  C3                ret
00001CFE  55                push ebp
00001CFF  89E5              mov ebp,esp
00001D01  83EC08            sub esp,byte +0x8
00001D04  817D08FFFF3F00    cmp dword [ebp+0x8],0x3fffff
00001D0B  760D              jna 0x1d1a
00001D0D  8B4508            mov eax,[ebp+0x8]
00001D10  3B0560F60000      cmp eax,[0xf660]
00001D16  7302              jnc 0x1d1a
00001D18  EB12              jmp short 0x1d2c
00001D1A  83EC0C            sub esp,byte +0xc
00001D1D  6840410000        push dword 0x4140
00001D22  E8BEF7FFFF        call 0x14e5
00001D27  83C410            add esp,byte +0x10
00001D2A  EB30              jmp short 0x1d5c
00001D2C  C16D080C          shr dword [ebp+0x8],0xc
00001D30  8B4508            mov eax,[ebp+0x8]
00001D33  0500D60000        add eax,0xd600
00001D38  FE08              dec byte [eax]
00001D3A  8038FF            cmp byte [eax],0xff
00001D3D  7402              jz 0x1d41
00001D3F  EB1B              jmp short 0x1d5c
00001D41  8B4508            mov eax,[ebp+0x8]
00001D44  0500D60000        add eax,0xd600
00001D49  C60000            mov byte [eax],0x0
00001D4C  83EC0C            sub esp,byte +0xc
00001D4F  6861410000        push dword 0x4161
00001D54  E88CF7FFFF        call 0x14e5
00001D59  83C410            add esp,byte +0x10
00001D5C  C9                leave
00001D5D  C3                ret
00001D5E  55                push ebp
00001D5F  89E5              mov ebp,esp
00001D61  83EC18            sub esp,byte +0x18
00001D64  8B4508            mov eax,[ebp+0x8]
00001D67  25FF0F0000        and eax,0xfff
00001D6C  85C0              test eax,eax
00001D6E  7410              jz 0x1d80
00001D70  83EC0C            sub esp,byte +0xc
00001D73  6880410000        push dword 0x4180
00001D78  E868F7FFFF        call 0x14e5
00001D7D  83C410            add esp,byte +0x10
00001D80  8B4508            mov eax,[ebp+0x8]
00001D83  8945F4            mov [ebp-0xc],eax
00001D86  C745FC00000000    mov dword [ebp-0x4],0x0
00001D8D  817DFCFF030000    cmp dword [ebp-0x4],0x3ff
00001D94  7E05              jng 0x1d9b
00001D96  E9F3000000        jmp 0x1e8e
00001D9B  8B45FC            mov eax,[ebp-0x4]
00001D9E  8D148500000000    lea edx,[eax*4+0x0]
00001DA5  8B45F4            mov eax,[ebp-0xc]
00001DA8  8B0410            mov eax,[eax+edx]
00001DAB  83E001            and eax,byte +0x1
00001DAE  85C0              test eax,eax
00001DB0  0F84BA000000      jz near 0x1e70
00001DB6  8B45FC            mov eax,[ebp-0x4]
00001DB9  8D148500000000    lea edx,[eax*4+0x0]
00001DC0  8B45F4            mov eax,[ebp-0xc]
00001DC3  8B0410            mov eax,[eax+edx]
00001DC6  2500F0FFFF        and eax,0xfffff000
00001DCB  8945F0            mov [ebp-0x10],eax
00001DCE  C745F800000000    mov dword [ebp-0x8],0x0
00001DD5  817DF8FF030000    cmp dword [ebp-0x8],0x3ff
00001DDC  7E02              jng 0x1de0
00001DDE  EB6F              jmp short 0x1e4f
00001DE0  8B45F8            mov eax,[ebp-0x8]
00001DE3  8D148500000000    lea edx,[eax*4+0x0]
00001DEA  8B45F0            mov eax,[ebp-0x10]
00001DED  8B0410            mov eax,[eax+edx]
00001DF0  83E001            and eax,byte +0x1
00001DF3  85C0              test eax,eax
00001DF5  743D              jz 0x1e34
00001DF7  8B45F8            mov eax,[ebp-0x8]
00001DFA  8D148500000000    lea edx,[eax*4+0x0]
00001E01  8B45F0            mov eax,[ebp-0x10]
00001E04  8B0410            mov eax,[eax+edx]
00001E07  2500F0FFFF        and eax,0xfffff000
00001E0C  3DFFFF3F00        cmp eax,0x3fffff
00001E11  7621              jna 0x1e34
00001E13  83EC0C            sub esp,byte +0xc
00001E16  8B45F8            mov eax,[ebp-0x8]
00001E19  8D148500000000    lea edx,[eax*4+0x0]
00001E20  8B45F0            mov eax,[ebp-0x10]
00001E23  8B0410            mov eax,[eax+edx]
00001E26  2500F0FFFF        and eax,0xfffff000
00001E2B  50                push eax
00001E2C  E8CDFEFFFF        call 0x1cfe
00001E31  83C410            add esp,byte +0x10
00001E34  8B45F8            mov eax,[ebp-0x8]
00001E37  8D148500000000    lea edx,[eax*4+0x0]
00001E3E  8B45F0            mov eax,[ebp-0x10]
00001E41  C7041000000000    mov dword [eax+edx],0x0
00001E48  8D45F8            lea eax,[ebp-0x8]
00001E4B  FF00              inc dword [eax]
00001E4D  EB86              jmp short 0x1dd5
00001E4F  83EC0C            sub esp,byte +0xc
00001E52  8B45FC            mov eax,[ebp-0x4]
00001E55  8D148500000000    lea edx,[eax*4+0x0]
00001E5C  8B45F4            mov eax,[ebp-0xc]
00001E5F  8B0410            mov eax,[eax+edx]
00001E62  2500F0FFFF        and eax,0xfffff000
00001E67  50                push eax
00001E68  E891FEFFFF        call 0x1cfe
00001E6D  83C410            add esp,byte +0x10
00001E70  8B45FC            mov eax,[ebp-0x4]
00001E73  8D148500000000    lea edx,[eax*4+0x0]
00001E7A  8B45F4            mov eax,[ebp-0xc]
00001E7D  C7041000000000    mov dword [eax+edx],0x0
00001E84  8D45FC            lea eax,[ebp-0x4]
00001E87  FF00              inc dword [eax]
00001E89  E9FFFEFFFF        jmp 0x1d8d
00001E8E  C9                leave
00001E8F  C3                ret
00001E90  55                push ebp
00001E91  89E5              mov ebp,esp
00001E93  83EC28            sub esp,byte +0x28
00001E96  8B4508            mov eax,[ebp+0x8]
00001E99  25FF0F0000        and eax,0xfff
00001E9E  85C0              test eax,eax
00001EA0  750E              jnz 0x1eb0
00001EA2  8B450C            mov eax,[ebp+0xc]
00001EA5  25FF0F0000        and eax,0xfff
00001EAA  85C0              test eax,eax
00001EAC  7502              jnz 0x1eb0
00001EAE  EB10              jmp short 0x1ec0
00001EB0  83EC0C            sub esp,byte +0xc
00001EB3  68C0410000        push dword 0x41c0
00001EB8  E828F6FFFF        call 0x14e5
00001EBD  83C410            add esp,byte +0x10
00001EC0  8B4508            mov eax,[ebp+0x8]
00001EC3  8945F4            mov [ebp-0xc],eax
00001EC6  8B450C            mov eax,[ebp+0xc]
00001EC9  8945F0            mov [ebp-0x10],eax
00001ECC  C745FC00000000    mov dword [ebp-0x4],0x0
00001ED3  817DFCFF030000    cmp dword [ebp-0x4],0x3ff
00001EDA  7E05              jng 0x1ee1
00001EDC  E957010000        jmp 0x2038
00001EE1  8B45FC            mov eax,[ebp-0x4]
00001EE4  8D148500000000    lea edx,[eax*4+0x0]
00001EEB  8B45F0            mov eax,[ebp-0x10]
00001EEE  8B0410            mov eax,[eax+edx]
00001EF1  83E001            and eax,byte +0x1
00001EF4  85C0              test eax,eax
00001EF6  7415              jz 0x1f0d
00001EF8  83EC0C            sub esp,byte +0xc
00001EFB  6800420000        push dword 0x4200
00001F00  E8E0F5FFFF        call 0x14e5
00001F05  83C410            add esp,byte +0x10
00001F08  E921010000        jmp 0x202e
00001F0D  8B45FC            mov eax,[ebp-0x4]
00001F10  8D148500000000    lea edx,[eax*4+0x0]
00001F17  8B45F4            mov eax,[ebp-0xc]
00001F1A  8B0410            mov eax,[eax+edx]
00001F1D  83E001            and eax,byte +0x1
00001F20  85C0              test eax,eax
00001F22  7519              jnz 0x1f3d
00001F24  8B45FC            mov eax,[ebp-0x4]
00001F27  8D148500000000    lea edx,[eax*4+0x0]
00001F2E  8B45F0            mov eax,[ebp-0x10]
00001F31  C7041000000000    mov dword [eax+edx],0x0
00001F38  E9F1000000        jmp 0x202e
00001F3D  8B45FC            mov eax,[ebp-0x4]
00001F40  8D148500000000    lea edx,[eax*4+0x0]
00001F47  8B45F4            mov eax,[ebp-0xc]
00001F4A  8B0410            mov eax,[eax+edx]
00001F4D  2500F0FFFF        and eax,0xfffff000
00001F52  8945EC            mov [ebp-0x14],eax
00001F55  E856FDFFFF        call 0x1cb0
00001F5A  C1E00C            shl eax,0xc
00001F5D  8945E0            mov [ebp-0x20],eax
00001F60  8B45E0            mov eax,[ebp-0x20]
00001F63  8945E8            mov [ebp-0x18],eax
00001F66  8B45FC            mov eax,[ebp-0x4]
00001F69  8D0C8500000000    lea ecx,[eax*4+0x0]
00001F70  8B55F0            mov edx,[ebp-0x10]
00001F73  8B45E0            mov eax,[ebp-0x20]
00001F76  83C807            or eax,byte +0x7
00001F79  89040A            mov [edx+ecx],eax
00001F7C  C745F800000000    mov dword [ebp-0x8],0x0
00001F83  817DF8FF030000    cmp dword [ebp-0x8],0x3ff
00001F8A  7E05              jng 0x1f91
00001F8C  E99D000000        jmp 0x202e
00001F91  8B45F8            mov eax,[ebp-0x8]
00001F94  8D148500000000    lea edx,[eax*4+0x0]
00001F9B  8B45EC            mov eax,[ebp-0x14]
00001F9E  8B0410            mov eax,[eax+edx]
00001FA1  83E001            and eax,byte +0x1
00001FA4  85C0              test eax,eax
00001FA6  7468              jz 0x2010
00001FA8  817DFCFF000000    cmp dword [ebp-0x4],0xff
00001FAF  7E24              jng 0x1fd5
00001FB1  8B45F8            mov eax,[ebp-0x8]
00001FB4  8D148500000000    lea edx,[eax*4+0x0]
00001FBB  8B45EC            mov eax,[ebp-0x14]
00001FBE  8B0410            mov eax,[eax+edx]
00001FC1  83E0FD            and eax,byte -0x3
00001FC4  8945E4            mov [ebp-0x1c],eax
00001FC7  8B45E4            mov eax,[ebp-0x1c]
00001FCA  C1E80C            shr eax,0xc
00001FCD  FE8000D60000      inc byte [eax+0xd600]
00001FD3  EB13              jmp short 0x1fe8
00001FD5  8B45F8            mov eax,[ebp-0x8]
00001FD8  8D148500000000    lea edx,[eax*4+0x0]
00001FDF  8B45EC            mov eax,[ebp-0x14]
00001FE2  8B0410            mov eax,[eax+edx]
00001FE5  8945E4            mov [ebp-0x1c],eax
00001FE8  8B45F8            mov eax,[ebp-0x8]
00001FEB  8D0C8500000000    lea ecx,[eax*4+0x0]
00001FF2  8B55EC            mov edx,[ebp-0x14]
00001FF5  8B45E4            mov eax,[ebp-0x1c]
00001FF8  89040A            mov [edx+ecx],eax
00001FFB  8B45F8            mov eax,[ebp-0x8]
00001FFE  8D0C8500000000    lea ecx,[eax*4+0x0]
00002005  8B55E8            mov edx,[ebp-0x18]
00002008  8B45E4            mov eax,[ebp-0x1c]
0000200B  89040A            mov [edx+ecx],eax
0000200E  EB14              jmp short 0x2024
00002010  8B45F8            mov eax,[ebp-0x8]
00002013  8D148500000000    lea edx,[eax*4+0x0]
0000201A  8B45E8            mov eax,[ebp-0x18]
0000201D  C7041000000000    mov dword [eax+edx],0x0
00002024  8D45F8            lea eax,[ebp-0x8]
00002027  FF00              inc dword [eax]
00002029  E955FFFFFF        jmp 0x1f83
0000202E  8D45FC            lea eax,[ebp-0x4]
00002031  FF00              inc dword [eax]
00002033  E99BFEFFFF        jmp 0x1ed3
00002038  E805010000        call 0x2142
0000203D  C9                leave
0000203E  C3                ret
0000203F  55                push ebp
00002040  89E5              mov ebp,esp
00002042  83EC18            sub esp,byte +0x18
00002045  817D0CFFFF3F00    cmp dword [ebp+0xc],0x3fffff
0000204C  760D              jna 0x205b
0000204E  8B450C            mov eax,[ebp+0xc]
00002051  3B0560F60000      cmp eax,[0xf660]
00002057  7302              jnc 0x205b
00002059  EB1C              jmp short 0x2077
0000205B  83EC0C            sub esp,byte +0xc
0000205E  6840420000        push dword 0x4240
00002063  E87DF4FFFF        call 0x14e5
00002068  83C410            add esp,byte +0x10
0000206B  C745EC00000000    mov dword [ebp-0x14],0x0
00002072  E990000000        jmp 0x2107
00002077  8B4508            mov eax,[ebp+0x8]
0000207A  2500F0FFFF        and eax,0xfffff000
0000207F  8945FC            mov [ebp-0x4],eax
00002082  8B4510            mov eax,[ebp+0x10]
00002085  C1E816            shr eax,0x16
00002088  8945F4            mov [ebp-0xc],eax
0000208B  8B45F4            mov eax,[ebp-0xc]
0000208E  8D148500000000    lea edx,[eax*4+0x0]
00002095  8B45FC            mov eax,[ebp-0x4]
00002098  8B0410            mov eax,[eax+edx]
0000209B  83E001            and eax,byte +0x1
0000209E  85C0              test eax,eax
000020A0  741A              jz 0x20bc
000020A2  8B45F4            mov eax,[ebp-0xc]
000020A5  8D148500000000    lea edx,[eax*4+0x0]
000020AC  8B45FC            mov eax,[ebp-0x4]
000020AF  8B0410            mov eax,[eax+edx]
000020B2  2500F0FFFF        and eax,0xfffff000
000020B7  8945F8            mov [ebp-0x8],eax
000020BA  EB27              jmp short 0x20e3
000020BC  E8EFFBFFFF        call 0x1cb0
000020C1  C1E00C            shl eax,0xc
000020C4  8945F0            mov [ebp-0x10],eax
000020C7  8B45F0            mov eax,[ebp-0x10]
000020CA  8945F8            mov [ebp-0x8],eax
000020CD  8B45F4            mov eax,[ebp-0xc]
000020D0  8D0C8500000000    lea ecx,[eax*4+0x0]
000020D7  8B55FC            mov edx,[ebp-0x4]
000020DA  8B45F0            mov eax,[ebp-0x10]
000020DD  83C807            or eax,byte +0x7
000020E0  89040A            mov [edx+ecx],eax
000020E3  8B4510            mov eax,[ebp+0x10]
000020E6  C1E80C            shr eax,0xc
000020E9  25FF030000        and eax,0x3ff
000020EE  8D0C8500000000    lea ecx,[eax*4+0x0]
000020F5  8B55F8            mov edx,[ebp-0x8]
000020F8  8B450C            mov eax,[ebp+0xc]
000020FB  83C807            or eax,byte +0x7
000020FE  89040A            mov [edx+ecx],eax
00002101  8B450C            mov eax,[ebp+0xc]
00002104  8945EC            mov [ebp-0x14],eax
00002107  8B45EC            mov eax,[ebp-0x14]
0000210A  C9                leave
0000210B  C3                ret
0000210C  55                push ebp
0000210D  89E5              mov ebp,esp
0000210F  83EC08            sub esp,byte +0x8
00002112  8B450C            mov eax,[ebp+0xc]
00002115  83E001            and eax,byte +0x1
00002118  85C0              test eax,eax
0000211A  7413              jz 0x212f
0000211C  83EC08            sub esp,byte +0x8
0000211F  FF750C            push dword [ebp+0xc]
00002122  FF7508            push dword [ebp+0x8]
00002125  E8AB000000        call 0x21d5
0000212A  83C410            add esp,byte +0x10
0000212D  EB11              jmp short 0x2140
0000212F  83EC08            sub esp,byte +0x8
00002132  FF750C            push dword [ebp+0xc]
00002135  FF7508            push dword [ebp+0x8]
00002138  E869020000        call 0x23a6
0000213D  83C410            add esp,byte +0x10
00002140  C9                leave
00002141  C3                ret
00002142  55                push ebp
00002143  89E5              mov ebp,esp
00002145  83EC08            sub esp,byte +0x8
00002148  83EC0C            sub esp,byte +0xc
0000214B  83EC04            sub esp,byte +0x4
0000214E  E876FAFFFF        call 0x1bc9
00002153  83C404            add esp,byte +0x4
00002156  50                push eax
00002157  E87EFAFFFF        call 0x1bda
0000215C  83C410            add esp,byte +0x10
0000215F  C9                leave
00002160  C3                ret
00002161  55                push ebp
00002162  89E5              mov ebp,esp
00002164  57                push edi
00002165  56                push esi
00002166  83EC10            sub esp,byte +0x10
00002169  8B4508            mov eax,[ebp+0x8]
0000216C  8B00              mov eax,[eax]
0000216E  2500F0FFFF        and eax,0xfffff000
00002173  8945F4            mov [ebp-0xc],eax
00002176  8B45F4            mov eax,[ebp-0xc]
00002179  C1E80C            shr eax,0xc
0000217C  80B800D6000001    cmp byte [eax+0xd600],0x1
00002183  7514              jnz 0x2199
00002185  8B4508            mov eax,[ebp+0x8]
00002188  8B5508            mov edx,[ebp+0x8]
0000218B  8B12              mov edx,[edx]
0000218D  83CA02            or edx,byte +0x2
00002190  8910              mov [eax],edx
00002192  E8ABFFFFFF        call 0x2142
00002197  EB35              jmp short 0x21ce
00002199  8B45F4            mov eax,[ebp-0xc]
0000219C  C1E80C            shr eax,0xc
0000219F  FE8800D60000      dec byte [eax+0xd600]
000021A5  E806FBFFFF        call 0x1cb0
000021AA  C1E00C            shl eax,0xc
000021AD  8945F0            mov [ebp-0x10],eax
000021B0  8B5508            mov edx,[ebp+0x8]
000021B3  8B45F0            mov eax,[ebp-0x10]
000021B6  83C807            or eax,byte +0x7
000021B9  8902              mov [edx],eax
000021BB  E882FFFFFF        call 0x2142
000021C0  8B75F4            mov esi,[ebp-0xc]
000021C3  8B7DF0            mov edi,[ebp-0x10]
000021C6  B900040000        mov ecx,0x400
000021CB  FC                cld
000021CC  F3A5              rep movsd
000021CE  83C410            add esp,byte +0x10
000021D1  5E                pop esi
000021D2  5F                pop edi
000021D3  C9                leave
000021D4  C3                ret
000021D5  55                push ebp
000021D6  89E5              mov ebp,esp
000021D8  83EC18            sub esp,byte +0x18
000021DB  E8E9F9FFFF        call 0x1bc9
000021E0  2500F0FFFF        and eax,0xfffff000
000021E5  8945FC            mov [ebp-0x4],eax
000021E8  8B4508            mov eax,[ebp+0x8]
000021EB  C1E816            shr eax,0x16
000021EE  8945F4            mov [ebp-0xc],eax
000021F1  8B45F4            mov eax,[ebp-0xc]
000021F4  8D148500000000    lea edx,[eax*4+0x0]
000021FB  8B45FC            mov eax,[ebp-0x4]
000021FE  8B0410            mov eax,[eax+edx]
00002201  2500F0FFFF        and eax,0xfffff000
00002206  8945F8            mov [ebp-0x8],eax
00002209  83EC0C            sub esp,byte +0xc
0000220C  8B4508            mov eax,[ebp+0x8]
0000220F  C1E80C            shr eax,0xc
00002212  25FF030000        and eax,0x3ff
00002217  C1E002            shl eax,0x2
0000221A  0345F8            add eax,[ebp-0x8]
0000221D  50                push eax
0000221E  E83EFFFFFF        call 0x2161
00002223  83C410            add esp,byte +0x10
00002226  C9                leave
00002227  C3                ret
00002228  55                push ebp
00002229  89E5              mov ebp,esp
0000222B  56                push esi
0000222C  53                push ebx
0000222D  83EC20            sub esp,byte +0x20
00002230  8B550C            mov edx,[ebp+0xc]
00002233  8B4508            mov eax,[ebp+0x8]
00002236  038290020000      add eax,[edx+0x290]
0000223C  8945F4            mov [ebp-0xc],eax
0000223F  8B45F4            mov eax,[ebp-0xc]
00002242  C1E816            shr eax,0x16
00002245  8945F0            mov [ebp-0x10],eax
00002248  8B45F4            mov eax,[ebp-0xc]
0000224B  C1E80C            shr eax,0xc
0000224E  25FF030000        and eax,0x3ff
00002253  8945EC            mov [ebp-0x14],eax
00002256  8B450C            mov eax,[ebp+0xc]
00002259  8B401C            mov eax,[eax+0x1c]
0000225C  2500F0FFFF        and eax,0xfffff000
00002261  8945E8            mov [ebp-0x18],eax
00002264  8B45F0            mov eax,[ebp-0x10]
00002267  8D148500000000    lea edx,[eax*4+0x0]
0000226E  8B45E8            mov eax,[ebp-0x18]
00002271  8B0410            mov eax,[eax+edx]
00002274  83E001            and eax,byte +0x1
00002277  85C0              test eax,eax
00002279  750C              jnz 0x2287
0000227B  C745DC00000000    mov dword [ebp-0x24],0x0
00002282  E9F9000000        jmp 0x2380
00002287  8B45F0            mov eax,[ebp-0x10]
0000228A  8D148500000000    lea edx,[eax*4+0x0]
00002291  8B45E8            mov eax,[ebp-0x18]
00002294  8B0410            mov eax,[eax+edx]
00002297  2500F0FFFF        and eax,0xfffff000
0000229C  8945E4            mov [ebp-0x1c],eax
0000229F  8B45EC            mov eax,[ebp-0x14]
000022A2  8D148500000000    lea edx,[eax*4+0x0]
000022A9  8B45E4            mov eax,[ebp-0x1c]
000022AC  8B0410            mov eax,[eax+edx]
000022AF  83E041            and eax,byte +0x41
000022B2  83F801            cmp eax,byte +0x1
000022B5  740C              jz 0x22c3
000022B7  C745DC00000000    mov dword [ebp-0x24],0x0
000022BE  E9BD000000        jmp 0x2380
000022C3  A13C6C0000        mov eax,[0x6c3c]
000022C8  8B401C            mov eax,[eax+0x1c]
000022CB  8945E8            mov [ebp-0x18],eax
000022CE  8B45F0            mov eax,[ebp-0x10]
000022D1  8D148500000000    lea edx,[eax*4+0x0]
000022D8  8B45E8            mov eax,[ebp-0x18]
000022DB  8B0410            mov eax,[eax+edx]
000022DE  83E001            and eax,byte +0x1
000022E1  85C0              test eax,eax
000022E3  751B              jnz 0x2300
000022E5  8B45F0            mov eax,[ebp-0x10]
000022E8  8D348500000000    lea esi,[eax*4+0x0]
000022EF  8B5DE8            mov ebx,[ebp-0x18]
000022F2  E8B9F9FFFF        call 0x1cb0
000022F7  C1E00C            shl eax,0xc
000022FA  83C807            or eax,byte +0x7
000022FD  890433            mov [ebx+esi],eax
00002300  8B45F0            mov eax,[ebp-0x10]
00002303  8D148500000000    lea edx,[eax*4+0x0]
0000230A  8B45E8            mov eax,[ebp-0x18]
0000230D  8B0410            mov eax,[eax+edx]
00002310  2500F0FFFF        and eax,0xfffff000
00002315  8945E0            mov [ebp-0x20],eax
00002318  8B45EC            mov eax,[ebp-0x14]
0000231B  8D1C8500000000    lea ebx,[eax*4+0x0]
00002322  8B4DE4            mov ecx,[ebp-0x1c]
00002325  8B45EC            mov eax,[ebp-0x14]
00002328  8D148500000000    lea edx,[eax*4+0x0]
0000232F  8B45E4            mov eax,[ebp-0x1c]
00002332  8B0410            mov eax,[eax+edx]
00002335  83E0FD            and eax,byte -0x3
00002338  890419            mov [ecx+ebx],eax
0000233B  8B45EC            mov eax,[ebp-0x14]
0000233E  8D1C8500000000    lea ebx,[eax*4+0x0]
00002345  8B4DE0            mov ecx,[ebp-0x20]
00002348  8B45EC            mov eax,[ebp-0x14]
0000234B  8D148500000000    lea edx,[eax*4+0x0]
00002352  8B45E4            mov eax,[ebp-0x1c]
00002355  8B0410            mov eax,[eax+edx]
00002358  890419            mov [ecx+ebx],eax
0000235B  E8E2FDFFFF        call 0x2142
00002360  8B45EC            mov eax,[ebp-0x14]
00002363  8D148500000000    lea edx,[eax*4+0x0]
0000236A  8B45E0            mov eax,[ebp-0x20]
0000236D  8B0410            mov eax,[eax+edx]
00002370  C1E80C            shr eax,0xc
00002373  FE8000D60000      inc byte [eax+0xd600]
00002379  C745DC01000000    mov dword [ebp-0x24],0x1
00002380  8B45DC            mov eax,[ebp-0x24]
00002383  83C420            add esp,byte +0x20
00002386  5B                pop ebx
00002387  5E                pop esi
00002388  C9                leave
00002389  C3                ret
0000238A  55                push ebp
0000238B  89E5              mov ebp,esp
0000238D  83EC04            sub esp,byte +0x4
00002390  A13C6C0000        mov eax,[0x6c3c]
00002395  C78098020000FFFF  mov dword [eax+0x298],0xffffffff
         -FFFF
0000239F  B800000000        mov eax,0x0
000023A4  C9                leave
000023A5  C3                ret
000023A6  55                push ebp
000023A7  89E5              mov ebp,esp
000023A9  83EC08            sub esp,byte +0x8
000023AC  81650800F0FFFF    and dword [ebp+0x8],0xfffff000
000023B3  A13C6C0000        mov eax,[0x6c3c]
000023B8  8B9090020000      mov edx,[eax+0x290]
000023BE  8B4508            mov eax,[ebp+0x8]
000023C1  29D0              sub eax,edx
000023C3  8945FC            mov [ebp-0x4],eax
000023C6  8B153C6C0000      mov edx,[0x6c3c]
000023CC  8B4508            mov eax,[ebp+0x8]
000023CF  3B8294020000      cmp eax,[edx+0x294]
000023D5  722B              jc 0x2402
000023D7  83EC04            sub esp,byte +0x4
000023DA  FF7508            push dword [ebp+0x8]
000023DD  83EC08            sub esp,byte +0x8
000023E0  E8CBF8FFFF        call 0x1cb0
000023E5  83C408            add esp,byte +0x8
000023E8  C1E00C            shl eax,0xc
000023EB  50                push eax
000023EC  83EC04            sub esp,byte +0x4
000023EF  E8D5F7FFFF        call 0x1bc9
000023F4  83C404            add esp,byte +0x4
000023F7  50                push eax
000023F8  E842FCFFFF        call 0x203f
000023FD  83C410            add esp,byte +0x10
00002400  EB38              jmp short 0x243a
00002402  83EC0C            sub esp,byte +0xc
00002405  FF75FC            push dword [ebp-0x4]
00002408  E87DFFFFFF        call 0x238a
0000240D  83C410            add esp,byte +0x10
00002410  85C0              test eax,eax
00002412  7402              jz 0x2416
00002414  EB24              jmp short 0x243a
00002416  E895F8FFFF        call 0x1cb0
0000241B  C1E00C            shl eax,0xc
0000241E  8945F8            mov [ebp-0x8],eax
00002421  8B45F8            mov eax,[ebp-0x8]
00002424  85C0              test eax,eax
00002426  7502              jnz 0x242a
00002428  EB10              jmp short 0x243a
0000242A  83EC08            sub esp,byte +0x8
0000242D  FF75FC            push dword [ebp-0x4]
00002430  6A00              push byte +0x0
00002432  E822180000        call 0x3c59
00002437  83C410            add esp,byte +0x10
0000243A  C9                leave
0000243B  C3                ret
0000243C  55                push ebp
0000243D  89E5              mov ebp,esp
0000243F  83EC08            sub esp,byte +0x8
00002442  90                nop
00002443  83EC0C            sub esp,byte +0xc
00002446  6A64              push byte +0x64
00002448  E893F5FFFF        call 0x19e0
0000244D  83C410            add esp,byte +0x10
00002450  8845FF            mov [ebp-0x1],al
00002453  8A45FF            mov al,[ebp-0x1]
00002456  83E002            and eax,byte +0x2
00002459  84C0              test al,al
0000245B  75E6              jnz 0x2443
0000245D  C9                leave
0000245E  C3                ret
0000245F  55                push ebp
00002460  89E5              mov ebp,esp
00002462  83EC08            sub esp,byte +0x8
00002465  90                nop
00002466  83EC0C            sub esp,byte +0xc
00002469  6A60              push byte +0x60
0000246B  E870F5FFFF        call 0x19e0
00002470  83C410            add esp,byte +0x10
00002473  8845FF            mov [ebp-0x1],al
00002476  C645FF00          mov byte [ebp-0x1],0x0
0000247A  C9                leave
0000247B  C3                ret
0000247C  55                push ebp
0000247D  89E5              mov ebp,esp
0000247F  83EC08            sub esp,byte +0x8
00002482  A0C0D50000        mov al,[0xd5c0]
00002487  8D148500000000    lea edx,[eax*4+0x0]
0000248E  A028690000        mov al,[0x6928]
00002493  D1E0              shl eax,1
00002495  09D0              or eax,edx
00002497  0A057CF60000      or al,[0xf67c]
0000249D  8845FF            mov [ebp-0x1],al
000024A0  E897FFFFFF        call 0x243c
000024A5  83EC08            sub esp,byte +0x8
000024A8  6AED              push byte -0x13
000024AA  6A60              push byte +0x60
000024AC  E83FF5FFFF        call 0x19f0
000024B1  83C410            add esp,byte +0x10
000024B4  E8A6FFFFFF        call 0x245f
000024B9  E87EFFFFFF        call 0x243c
000024BE  83EC08            sub esp,byte +0x8
000024C1  0FBE45FF          movsx eax,byte [ebp-0x1]
000024C5  50                push eax
000024C6  6A60              push byte +0x60
000024C8  E823F5FFFF        call 0x19f0
000024CD  83C410            add esp,byte +0x10
000024D0  E88AFFFFFF        call 0x245f
000024D5  C9                leave
000024D6  C3                ret
000024D7  55                push ebp
000024D8  89E5              mov ebp,esp
000024DA  83EC04            sub esp,byte +0x4
000024DD  90                nop
000024DE  833D206C000000    cmp dword [0x6c20],byte +0x0
000024E5  74F7              jz 0x24de
000024E7  FA                cli
000024E8  A1246C0000        mov eax,[0x6c24]
000024ED  05006C0000        add eax,0x6c00
000024F2  8A00              mov al,[eax]
000024F4  8845FF            mov [ebp-0x1],al
000024F7  FF05246C0000      inc dword [0x6c24]
000024FD  A1246C0000        mov eax,[0x6c24]
00002502  83E01F            and eax,byte +0x1f
00002505  A3246C0000        mov [0x6c24],eax
0000250A  FF0D206C0000      dec dword [0x6c20]
00002510  FB                sti
00002511  0FBE45FF          movsx eax,byte [ebp-0x1]
00002515  C9                leave
00002516  C3                ret
00002517  55                push ebp
00002518  89E5              mov ebp,esp
0000251A  83EC08            sub esp,byte +0x8
0000251D  83EC0C            sub esp,byte +0xc
00002520  6A60              push byte +0x60
00002522  E8B9F4FFFF        call 0x19e0
00002527  83C410            add esp,byte +0x10
0000252A  8845FF            mov [ebp-0x1],al
0000252D  833D206C00001F    cmp dword [0x6c20],byte +0x1f
00002534  7729              ja 0x255f
00002536  A1286C0000        mov eax,[0x6c28]
0000253B  8D90006C0000      lea edx,[eax+0x6c00]
00002541  8A45FF            mov al,[ebp-0x1]
00002544  8802              mov [edx],al
00002546  FF05286C0000      inc dword [0x6c28]
0000254C  A1286C0000        mov eax,[0x6c28]
00002551  83E01F            and eax,byte +0x1f
00002554  A3286C0000        mov [0x6c28],eax
00002559  FF05206C0000      inc dword [0x6c20]
0000255F  C9                leave
00002560  C3                ret
00002561  55                push ebp
00002562  89E5              mov ebp,esp
00002564  83EC08            sub esp,byte +0x8
00002567  C705CC6300000000  mov dword [0x63cc],0x0
         -0000
00002571  C705C4D500000000  mov dword [0xd5c4],0x0
         -0000
0000257B  C705B45F00000000  mov dword [0x5fb4],0x0
         -0000
00002585  C705C86300000000  mov dword [0x63c8],0x0
         -0000
0000258F  C705346C00000000  mov dword [0x6c34],0x0
         -0000
00002599  C705F46B00000000  mov dword [0x6bf4],0x0
         -0000
000025A3  C705AC5F00000000  mov dword [0x5fac],0x0
         -0000
000025AD  C705C0D500000000  mov dword [0xd5c0],0x0
         -0000
000025B7  C705286900000100  mov dword [0x6928],0x1
         -0000
000025C1  C7057CF600000000  mov dword [0xf67c],0x0
         -0000
000025CB  E8ACFEFFFF        call 0x247c
000025D0  83EC08            sub esp,byte +0x8
000025D3  6817250000        push dword 0x2517
000025D8  6A01              push byte +0x1
000025DA  E84EE6FFFF        call 0xc2d
000025DF  83C410            add esp,byte +0x10
000025E2  83EC0C            sub esp,byte +0xc
000025E5  6A01              push byte +0x1
000025E7  E880E4FFFF        call 0xa6c
000025EC  83C410            add esp,byte +0x10
000025EF  C9                leave
000025F0  C3                ret
000025F1  55                push ebp
000025F2  89E5              mov ebp,esp
000025F4  83EC28            sub esp,byte +0x28
000025F7  C745F400000000    mov dword [ebp-0xc],0x0
000025FE  C745F000000000    mov dword [ebp-0x10],0x0
00002605  833D206C000000    cmp dword [0x6c20],byte +0x0
0000260C  0F84AD010000      jz near 0x27bf
00002612  C705CC6300000000  mov dword [0x63cc],0x0
         -0000
0000261C  E8B6FEFFFF        call 0x24d7
00002621  8845FB            mov [ebp-0x5],al
00002624  817DF00C010000    cmp dword [ebp-0x10],0x10c
0000262B  0F847A010000      jz near 0x27ab
00002631  817DF00B010000    cmp dword [ebp-0x10],0x10b
00002638  0F846D010000      jz near 0x27ab
0000263E  0FBE45FB          movsx eax,byte [ebp-0x5]
00002642  C1E807            shr eax,0x7
00002645  83F001            xor eax,byte +0x1
00002648  83E001            and eax,byte +0x1
0000264B  8945F4            mov [ebp-0xc],eax
0000264E  8A45FB            mov al,[ebp-0x5]
00002651  83E07F            and eax,byte +0x7f
00002654  0FBED0            movsx edx,al
00002657  89D0              mov eax,edx
00002659  D1E0              shl eax,1
0000265B  01D0              add eax,edx
0000265D  8D148500000000    lea edx,[eax*4+0x0]
00002664  B8A0590000        mov eax,0x59a0
00002669  01D0              add eax,edx
0000266B  8945EC            mov [ebp-0x14],eax
0000266E  C745E800000000    mov dword [ebp-0x18],0x0
00002675  C745E400000000    mov dword [ebp-0x1c],0x0
0000267C  833DC4D5000000    cmp dword [0xd5c4],byte +0x0
00002683  750B              jnz 0x2690
00002685  833DB45F000000    cmp dword [0x5fb4],byte +0x0
0000268C  7502              jnz 0x2690
0000268E  EB07              jmp short 0x2697
00002690  C745E401000000    mov dword [ebp-0x1c],0x1
00002697  833DC0D5000000    cmp dword [0xd5c0],byte +0x0
0000269E  741D              jz 0x26bd
000026A0  8B45EC            mov eax,[ebp-0x14]
000026A3  833860            cmp dword [eax],byte +0x60
000026A6  7615              jna 0x26bd
000026A8  8B45EC            mov eax,[ebp-0x14]
000026AB  83387A            cmp dword [eax],byte +0x7a
000026AE  770D              ja 0x26bd
000026B0  837DE400          cmp dword [ebp-0x1c],byte +0x0
000026B4  0F94C0            setz al
000026B7  0FB6C0            movzx eax,al
000026BA  8945E4            mov [ebp-0x1c],eax
000026BD  837DE400          cmp dword [ebp-0x1c],byte +0x0
000026C1  7407              jz 0x26ca
000026C3  C745E801000000    mov dword [ebp-0x18],0x1
000026CA  833DCC63000000    cmp dword [0x63cc],byte +0x0
000026D1  7407              jz 0x26da
000026D3  C745E802000000    mov dword [ebp-0x18],0x2
000026DA  8B45E8            mov eax,[ebp-0x18]
000026DD  8D148500000000    lea edx,[eax*4+0x0]
000026E4  8B45EC            mov eax,[ebp-0x14]
000026E7  8B0410            mov eax,[eax+edx]
000026EA  8945F0            mov [ebp-0x10],eax
000026ED  8B45F0            mov eax,[ebp-0x10]
000026F0  2D24010000        sub eax,0x124
000026F5  8945E0            mov [ebp-0x20],eax
000026F8  837DE02E          cmp dword [ebp-0x20],byte +0x2e
000026FC  0F87A9000000      ja near 0x27ab
00002702  8B55E0            mov edx,[ebp-0x20]
00002705  8B049560420000    mov eax,[edx*4+0x4260]
0000270C  FFE0              jmp eax
0000270E  8B45F4            mov eax,[ebp-0xc]
00002711  A3C4D50000        mov [0xd5c4],eax
00002716  E990000000        jmp 0x27ab
0000271B  8B45F4            mov eax,[ebp-0xc]
0000271E  A3B45F0000        mov [0x5fb4],eax
00002723  E983000000        jmp 0x27ab
00002728  8B45F4            mov eax,[ebp-0xc]
0000272B  A3F46B0000        mov [0x6bf4],eax
00002730  EB79              jmp short 0x27ab
00002732  8B45F4            mov eax,[ebp-0xc]
00002735  A3AC5F0000        mov [0x5fac],eax
0000273A  EB6F              jmp short 0x27ab
0000273C  8B45F4            mov eax,[ebp-0xc]
0000273F  A3C8630000        mov [0x63c8],eax
00002744  EB65              jmp short 0x27ab
00002746  8B45F4            mov eax,[ebp-0xc]
00002749  A3C8630000        mov [0x63c8],eax
0000274E  EB5B              jmp short 0x27ab
00002750  837DF400          cmp dword [ebp-0xc],byte +0x0
00002754  7455              jz 0x27ab
00002756  833DC0D5000000    cmp dword [0xd5c0],byte +0x0
0000275D  0F94C0            setz al
00002760  0FB6C0            movzx eax,al
00002763  A3C0D50000        mov [0xd5c0],eax
00002768  E80FFDFFFF        call 0x247c
0000276D  EB3C              jmp short 0x27ab
0000276F  837DF400          cmp dword [ebp-0xc],byte +0x0
00002773  7436              jz 0x27ab
00002775  833D2869000000    cmp dword [0x6928],byte +0x0
0000277C  0F94C0            setz al
0000277F  0FB6C0            movzx eax,al
00002782  A328690000        mov [0x6928],eax
00002787  E8F0FCFFFF        call 0x247c
0000278C  EB1D              jmp short 0x27ab
0000278E  837DF400          cmp dword [ebp-0xc],byte +0x0
00002792  7417              jz 0x27ab
00002794  833D7CF6000000    cmp dword [0xf67c],byte +0x0
0000279B  0F94C0            setz al
0000279E  0FB6C0            movzx eax,al
000027A1  A37CF60000        mov [0xf67c],eax
000027A6  E8D1FCFFFF        call 0x247c
000027AB  837DF400          cmp dword [ebp-0xc],byte +0x0
000027AF  740E              jz 0x27bf
000027B1  83EC0C            sub esp,byte +0xc
000027B4  FF75F0            push dword [ebp-0x10]
000027B7  E858120000        call 0x3a14
000027BC  83C410            add esp,byte +0x10
000027BF  B800000000        mov eax,0x0
000027C4  C9                leave
000027C5  C3                ret
000027C6  90                nop
000027C7  90                nop
000027C8  55                push ebp
000027C9  89E5              mov ebp,esp
000027CB  83EC08            sub esp,byte +0x8
000027CE  FA                cli
000027CF  83EC08            sub esp,byte +0x8
000027D2  6A0E              push byte +0xe
000027D4  68D4030000        push dword 0x3d4
000027D9  E812F2FFFF        call 0x19f0
000027DE  83C410            add esp,byte +0x10
000027E1  83EC08            sub esp,byte +0x8
000027E4  8B4508            mov eax,[ebp+0x8]
000027E7  C1E808            shr eax,0x8
000027EA  0FBEC0            movsx eax,al
000027ED  50                push eax
000027EE  68D5030000        push dword 0x3d5
000027F3  E8F8F1FFFF        call 0x19f0
000027F8  83C410            add esp,byte +0x10
000027FB  83EC08            sub esp,byte +0x8
000027FE  6A0F              push byte +0xf
00002800  68D4030000        push dword 0x3d4
00002805  E8E6F1FFFF        call 0x19f0
0000280A  83C410            add esp,byte +0x10
0000280D  83EC08            sub esp,byte +0x8
00002810  0FBE4508          movsx eax,byte [ebp+0x8]
00002814  50                push eax
00002815  68D5030000        push dword 0x3d5
0000281A  E8D1F1FFFF        call 0x19f0
0000281F  83C410            add esp,byte +0x10
00002822  FB                sti
00002823  C9                leave
00002824  C3                ret
00002825  55                push ebp
00002826  89E5              mov ebp,esp
00002828  83EC08            sub esp,byte +0x8
0000282B  FA                cli
0000282C  83EC08            sub esp,byte +0x8
0000282F  6A0C              push byte +0xc
00002831  68D4030000        push dword 0x3d4
00002836  E8B5F1FFFF        call 0x19f0
0000283B  83C410            add esp,byte +0x10
0000283E  83EC08            sub esp,byte +0x8
00002841  8B4508            mov eax,[ebp+0x8]
00002844  C1E808            shr eax,0x8
00002847  0FBEC0            movsx eax,al
0000284A  50                push eax
0000284B  68D5030000        push dword 0x3d5
00002850  E89BF1FFFF        call 0x19f0
00002855  83C410            add esp,byte +0x10
00002858  83EC08            sub esp,byte +0x8
0000285B  6A0D              push byte +0xd
0000285D  68D4030000        push dword 0x3d4
00002862  E889F1FFFF        call 0x19f0
00002867  83C410            add esp,byte +0x10
0000286A  83EC08            sub esp,byte +0x8
0000286D  0FBE4508          movsx eax,byte [ebp+0x8]
00002871  50                push eax
00002872  68D5030000        push dword 0x3d5
00002877  E874F1FFFF        call 0x19f0
0000287C  83C410            add esp,byte +0x10
0000287F  FB                sti
00002880  C9                leave
00002881  C3                ret
00002882  55                push ebp
00002883  89E5              mov ebp,esp
00002885  83EC08            sub esp,byte +0x8
00002888  83EC0C            sub esp,byte +0xc
0000288B  8B4508            mov eax,[ebp+0x8]
0000288E  FFB0A0000000      push dword [eax+0xa0]
00002894  E82FFFFFFF        call 0x27c8
00002899  83C410            add esp,byte +0x10
0000289C  83EC0C            sub esp,byte +0xc
0000289F  A1A05F0000        mov eax,[0x5fa0]
000028A4  FFB098000000      push dword [eax+0x98]
000028AA  E876FFFFFF        call 0x2825
000028AF  83C410            add esp,byte +0x10
000028B2  C9                leave
000028B3  C3                ret
000028B4  55                push ebp
000028B5  89E5              mov ebp,esp
000028B7  83EC08            sub esp,byte +0x8
000028BA  8B550C            mov edx,[ebp+0xc]
000028BD  8B450C            mov eax,[ebp+0xc]
000028C0  8B80A0000000      mov eax,[eax+0xa0]
000028C6  8D0C00            lea ecx,[eax+eax]
000028C9  8B92A4000000      mov edx,[edx+0xa4]
000028CF  8A4508            mov al,[ebp+0x8]
000028D2  88040A            mov [edx+ecx],al
000028D5  8B550C            mov edx,[ebp+0xc]
000028D8  8B450C            mov eax,[ebp+0xc]
000028DB  8B80A0000000      mov eax,[eax+0xa0]
000028E1  D1E0              shl eax,1
000028E3  0382A4000000      add eax,[edx+0xa4]
000028E9  40                inc eax
000028EA  C6000F            mov byte [eax],0xf
000028ED  8B450C            mov eax,[ebp+0xc]
000028F0  FF80A0000000      inc dword [eax+0xa0]
000028F6  8B450C            mov eax,[ebp+0xc]
000028F9  8B550C            mov edx,[ebp+0xc]
000028FC  8B80A0000000      mov eax,[eax+0xa0]
00002902  3B829C000000      cmp eax,[edx+0x9c]
00002908  720E              jc 0x2918
0000290A  83EC0C            sub esp,byte +0xc
0000290D  FF750C            push dword [ebp+0xc]
00002910  E813000000        call 0x2928
00002915  83C410            add esp,byte +0x10
00002918  83EC0C            sub esp,byte +0xc
0000291B  FF750C            push dword [ebp+0xc]
0000291E  E85FFFFFFF        call 0x2882
00002923  83C410            add esp,byte +0x10
00002926  C9                leave
00002927  C3                ret
00002928  55                push ebp
00002929  89E5              mov ebp,esp
0000292B  83EC04            sub esp,byte +0x4
0000292E  8B4508            mov eax,[ebp+0x8]
00002931  8B8098000000      mov eax,[eax+0x98]
00002937  D1E0              shl eax,1
00002939  8945FC            mov [ebp-0x4],eax
0000293C  8B4508            mov eax,[ebp+0x8]
0000293F  8B8098000000      mov eax,[eax+0x98]
00002945  D1E0              shl eax,1
00002947  05000F0000        add eax,0xf00
0000294C  3945FC            cmp [ebp-0x4],eax
0000294F  7202              jc 0x2953
00002951  EB2A              jmp short 0x297d
00002953  8B5508            mov edx,[ebp+0x8]
00002956  8B45FC            mov eax,[ebp-0x4]
00002959  8B8AA4000000      mov ecx,[edx+0xa4]
0000295F  01C1              add ecx,eax
00002961  8B5508            mov edx,[ebp+0x8]
00002964  8B45FC            mov eax,[ebp-0x4]
00002967  0382A4000000      add eax,[edx+0xa4]
0000296D  05A0000000        add eax,0xa0
00002972  8A00              mov al,[eax]
00002974  8801              mov [ecx],al
00002976  8D45FC            lea eax,[ebp-0x4]
00002979  FF00              inc dword [eax]
0000297B  EBBF              jmp short 0x293c
0000297D  8B4508            mov eax,[ebp+0x8]
00002980  8B8098000000      mov eax,[eax+0x98]
00002986  D1E0              shl eax,1
00002988  05000F0000        add eax,0xf00
0000298D  8945FC            mov [ebp-0x4],eax
00002990  8B4508            mov eax,[ebp+0x8]
00002993  8B8098000000      mov eax,[eax+0x98]
00002999  D1E0              shl eax,1
0000299B  05A00F0000        add eax,0xfa0
000029A0  3945FC            cmp [ebp-0x4],eax
000029A3  7202              jc 0x29a7
000029A5  EB17              jmp short 0x29be
000029A7  8B5508            mov edx,[ebp+0x8]
000029AA  8B45FC            mov eax,[ebp-0x4]
000029AD  0382A4000000      add eax,[edx+0xa4]
000029B3  C60020            mov byte [eax],0x20
000029B6  8D45FC            lea eax,[ebp-0x4]
000029B9  830002            add dword [eax],byte +0x2
000029BC  EBD2              jmp short 0x2990
000029BE  8B4508            mov eax,[ebp+0x8]
000029C1  8B5508            mov edx,[ebp+0x8]
000029C4  8B92A0000000      mov edx,[edx+0xa0]
000029CA  83EA50            sub edx,byte +0x50
000029CD  8990A0000000      mov [eax+0xa0],edx
000029D3  C9                leave
000029D4  C3                ret
000029D5  90                nop
000029D6  90                nop
000029D7  90                nop
000029D8  55                push ebp
000029D9  89E5              mov ebp,esp
000029DB  53                push ebx
000029DC  83EC04            sub esp,byte +0x4
000029DF  8B5D08            mov ebx,[ebp+0x8]
000029E2  8B4D08            mov ecx,[ebp+0x8]
000029E5  8B4508            mov eax,[ebp+0x8]
000029E8  8B9098000000      mov edx,[eax+0x98]
000029EE  8B81A0000000      mov eax,[ecx+0xa0]
000029F4  29D0              sub eax,edx
000029F6  89C2              mov edx,eax
000029F8  B8CDCCCCCC        mov eax,0xcccccccd
000029FD  F7E2              mul edx
000029FF  C1EA06            shr edx,0x6
00002A02  89D0              mov eax,edx
00002A04  C1E002            shl eax,0x2
00002A07  01D0              add eax,edx
00002A09  89C2              mov edx,eax
00002A0B  C1E204            shl edx,0x4
00002A0E  8B4508            mov eax,[ebp+0x8]
00002A11  8B8898000000      mov ecx,[eax+0x98]
00002A17  8D0411            lea eax,[ecx+edx]
00002A1A  83C050            add eax,byte +0x50
00002A1D  8983A0000000      mov [ebx+0xa0],eax
00002A23  8B4508            mov eax,[ebp+0x8]
00002A26  8B5508            mov edx,[ebp+0x8]
00002A29  8B80A0000000      mov eax,[eax+0xa0]
00002A2F  3B829C000000      cmp eax,[edx+0x9c]
00002A35  720E              jc 0x2a45
00002A37  83EC0C            sub esp,byte +0xc
00002A3A  FF7508            push dword [ebp+0x8]
00002A3D  E8E6FEFFFF        call 0x2928
00002A42  83C410            add esp,byte +0x10
00002A45  83EC0C            sub esp,byte +0xc
00002A48  FF7508            push dword [ebp+0x8]
00002A4B  E832FEFFFF        call 0x2882
00002A50  83C410            add esp,byte +0x10
00002A53  8B5DFC            mov ebx,[ebp-0x4]
00002A56  C9                leave
00002A57  C3                ret
00002A58  55                push ebp
00002A59  89E5              mov ebp,esp
00002A5B  83EC08            sub esp,byte +0x8
00002A5E  8B4508            mov eax,[ebp+0x8]
00002A61  8B5508            mov edx,[ebp+0x8]
00002A64  8B80A0000000      mov eax,[eax+0xa0]
00002A6A  3B8298000000      cmp eax,[edx+0x98]
00002A70  7630              jna 0x2aa2
00002A72  8B4508            mov eax,[ebp+0x8]
00002A75  FF88A0000000      dec dword [eax+0xa0]
00002A7B  8B4D08            mov ecx,[ebp+0x8]
00002A7E  8B4508            mov eax,[ebp+0x8]
00002A81  8B80A0000000      mov eax,[eax+0xa0]
00002A87  8D1400            lea edx,[eax+eax]
00002A8A  8B81A4000000      mov eax,[ecx+0xa4]
00002A90  C6041020          mov byte [eax+edx],0x20
00002A94  83EC0C            sub esp,byte +0xc
00002A97  FF7508            push dword [ebp+0x8]
00002A9A  E8E3FDFFFF        call 0x2882
00002A9F  83C410            add esp,byte +0x10
00002AA2  C9                leave
00002AA3  C3                ret
00002AA4  55                push ebp
00002AA5  89E5              mov ebp,esp
00002AA7  83EC08            sub esp,byte +0x8
00002AAA  8B4508            mov eax,[ebp+0x8]
00002AAD  2500010000        and eax,0x100
00002AB2  85C0              test eax,eax
00002AB4  7513              jnz 0x2ac9
00002AB6  83EC08            sub esp,byte +0x8
00002AB9  FF750C            push dword [ebp+0xc]
00002ABC  FF7508            push dword [ebp+0x8]
00002ABF  E8F0FDFFFF        call 0x28b4
00002AC4  83C410            add esp,byte +0x10
00002AC7  EB74              jmp short 0x2b3d
00002AC9  8B4508            mov eax,[ebp+0x8]
00002ACC  8945FC            mov [ebp-0x4],eax
00002ACF  817DFC20010000    cmp dword [ebp-0x4],0x120
00002AD6  7447              jz 0x2b1f
00002AD8  817DFC20010000    cmp dword [ebp-0x4],0x120
00002ADF  770F              ja 0x2af0
00002AE1  8B45FC            mov eax,[ebp-0x4]
00002AE4  2D10010000        sub eax,0x110
00002AE9  83F80B            cmp eax,byte +0xb
00002AEC  774F              ja 0x2b3d
00002AEE  EB0B              jmp short 0x2afb
00002AF0  817DFC23010000    cmp dword [ebp-0x4],0x123
00002AF7  7436              jz 0x2b2f
00002AF9  EB42              jmp short 0x2b3d
00002AFB  833DC863000000    cmp dword [0x63c8],byte +0x0
00002B02  750B              jnz 0x2b0f
00002B04  833D346C000000    cmp dword [0x6c34],byte +0x0
00002B0B  7502              jnz 0x2b0f
00002B0D  EB2E              jmp short 0x2b3d
00002B0F  83EC0C            sub esp,byte +0xc
00002B12  FF7508            push dword [ebp+0x8]
00002B15  E8A70E0000        call 0x39c1
00002B1A  83C410            add esp,byte +0x10
00002B1D  EB1E              jmp short 0x2b3d
00002B1F  83EC0C            sub esp,byte +0xc
00002B22  FF750C            push dword [ebp+0xc]
00002B25  E8AEFEFFFF        call 0x29d8
00002B2A  83C410            add esp,byte +0x10
00002B2D  EB0E              jmp short 0x2b3d
00002B2F  83EC0C            sub esp,byte +0xc
00002B32  FF750C            push dword [ebp+0xc]
00002B35  E81EFFFFFF        call 0x2a58
00002B3A  83C410            add esp,byte +0x10
00002B3D  C9                leave
00002B3E  C3                ret
00002B3F  90                nop
00002B40  55                push ebp
00002B41  89E5              mov ebp,esp
00002B43  83EC18            sub esp,byte +0x18
00002B46  8B4508            mov eax,[ebp+0x8]
00002B49  8845FF            mov [ebp-0x1],al
00002B4C  833DB05F000000    cmp dword [0x5fb0],byte +0x0
00002B53  7402              jz 0x2b57
00002B55  EB67              jmp short 0x2bbe
00002B57  C745F800000000    mov dword [ebp-0x8],0x0
00002B5E  817DF80F270000    cmp dword [ebp-0x8],0x270f
00002B65  7E02              jng 0x2b69
00002B67  EB3B              jmp short 0x2ba4
00002B69  83EC0C            sub esp,byte +0xc
00002B6C  68F4030000        push dword 0x3f4
00002B71  E86AEEFFFF        call 0x19e0
00002B76  83C410            add esp,byte +0x10
00002B79  B2C0              mov dl,0xc0
00002B7B  21D0              and eax,edx
00002B7D  8845F7            mov [ebp-0x9],al
00002B80  807DF780          cmp byte [ebp-0x9],0x80
00002B84  7517              jnz 0x2b9d
00002B86  83EC08            sub esp,byte +0x8
00002B89  0FBE45FF          movsx eax,byte [ebp-0x1]
00002B8D  50                push eax
00002B8E  68F5030000        push dword 0x3f5
00002B93  E858EEFFFF        call 0x19f0
00002B98  83C410            add esp,byte +0x10
00002B9B  EB21              jmp short 0x2bbe
00002B9D  8D45F8            lea eax,[ebp-0x8]
00002BA0  FF00              inc dword [eax]
00002BA2  EBBA              jmp short 0x2b5e
00002BA4  C705B05F00000100  mov dword [0x5fb0],0x1
         -0000
00002BAE  83EC0C            sub esp,byte +0xc
00002BB1  6820430000        push dword 0x4320
00002BB6  E8DBE7FFFF        call 0x1396
00002BBB  83C410            add esp,byte +0x10
00002BBE  C9                leave
00002BBF  C3                ret
00002BC0  55                push ebp
00002BC1  89E5              mov ebp,esp
00002BC3  53                push ebx
00002BC4  83EC14            sub esp,byte +0x14
00002BC7  C745F800000000    mov dword [ebp-0x8],0x0
00002BCE  833DB05F000000    cmp dword [0x5fb0],byte +0x0
00002BD5  740C              jz 0x2be3
00002BD7  C745ECFFFFFFFF    mov dword [ebp-0x14],0xffffffff
00002BDE  E997000000        jmp 0x2c7a
00002BE3  C745F400000000    mov dword [ebp-0xc],0x0
00002BEA  817DF40F270000    cmp dword [ebp-0xc],0x270f
00002BF1  7E02              jng 0x2bf5
00002BF3  EB64              jmp short 0x2c59
00002BF5  83EC0C            sub esp,byte +0xc
00002BF8  68F4030000        push dword 0x3f4
00002BFD  E8DEEDFFFF        call 0x19e0
00002C02  83C410            add esp,byte +0x10
00002C05  0FBEC0            movsx eax,al
00002C08  25D0000000        and eax,0xd0
00002C0D  8945F0            mov [ebp-0x10],eax
00002C10  817DF080000000    cmp dword [ebp-0x10],0x80
00002C17  7508              jnz 0x2c21
00002C19  8B45F8            mov eax,[ebp-0x8]
00002C1C  8945EC            mov [ebp-0x14],eax
00002C1F  EB59              jmp short 0x2c7a
00002C21  817DF0D0000000    cmp dword [ebp-0x10],0xd0
00002C28  7528              jnz 0x2c52
00002C2A  837DF806          cmp dword [ebp-0x8],byte +0x6
00002C2E  7E02              jng 0x2c32
00002C30  EB27              jmp short 0x2c59
00002C32  8B45F8            mov eax,[ebp-0x8]
00002C35  8D9868F60000      lea ebx,[eax+0xf668]
00002C3B  83EC0C            sub esp,byte +0xc
00002C3E  68F5030000        push dword 0x3f5
00002C43  8D45F8            lea eax,[ebp-0x8]
00002C46  FF00              inc dword [eax]
00002C48  E893EDFFFF        call 0x19e0
00002C4D  83C410            add esp,byte +0x10
00002C50  8803              mov [ebx],al
00002C52  8D45F4            lea eax,[ebp-0xc]
00002C55  FF00              inc dword [eax]
00002C57  EB91              jmp short 0x2bea
00002C59  C705B05F00000100  mov dword [0x5fb0],0x1
         -0000
00002C63  83EC0C            sub esp,byte +0xc
00002C66  683C430000        push dword 0x433c
00002C6B  E826E7FFFF        call 0x1396
00002C70  83C410            add esp,byte +0x10
00002C73  C745ECFFFFFFFF    mov dword [ebp-0x14],0xffffffff
00002C7A  8B45EC            mov eax,[ebp-0x14]
00002C7D  8B5DFC            mov ebx,[ebp-0x4]
00002C80  C9                leave
00002C81  C3                ret
00002C82  55                push ebp
00002C83  89E5              mov ebp,esp
00002C85  57                push edi
00002C86  56                push esi
00002C87  83EC10            sub esp,byte +0x10
00002C8A  A1A0FA0000        mov eax,[0xfaa0]
00002C8F  8B4010            mov eax,[eax+0x10]
00002C92  8945F4            mov [ebp-0xc],eax
00002C95  FA                cli
00002C96  817DF4FFFF0F00    cmp dword [ebp-0xc],0xfffff
00002C9D  7E25              jng 0x2cc4
00002C9F  C745F4C05F0000    mov dword [ebp-0xc],0x5fc0
00002CA6  803DC4630000C5    cmp byte [0x63c4],0xc5
00002CAD  7515              jnz 0x2cc4
00002CAF  B900020000        mov ecx,0x200
00002CB4  A1A0FA0000        mov eax,[0xfaa0]
00002CB9  8B7010            mov esi,[eax+0x10]
00002CBC  BFC05F0000        mov edi,0x5fc0
00002CC1  FC                cld
00002CC2  F3A5              rep movsd
00002CC4  83EC08            sub esp,byte +0x8
00002CC7  6A06              push byte +0x6
00002CC9  6A0A              push byte +0xa
00002CCB  E820EDFFFF        call 0x19f0
00002CD0  83C410            add esp,byte +0x10
00002CD3  803DC4630000E6    cmp byte [0x63c4],0xe6
00002CDA  7506              jnz 0x2ce2
00002CDC  C645F346          mov byte [ebp-0xd],0x46
00002CE0  EB04              jmp short 0x2ce6
00002CE2  C645F34A          mov byte [ebp-0xd],0x4a
00002CE6  8A45F3            mov al,[ebp-0xd]
00002CE9  E60C              out 0xc,al
00002CEB  EB00              jmp short 0x2ced
00002CED  EB00              jmp short 0x2cef
00002CEF  E60B              out 0xb,al
00002CF1  EB00              jmp short 0x2cf3
00002CF3  EB00              jmp short 0x2cf5
00002CF5  83EC08            sub esp,byte +0x8
00002CF8  0FBE45F4          movsx eax,byte [ebp-0xc]
00002CFC  50                push eax
00002CFD  6A04              push byte +0x4
00002CFF  E8ECECFFFF        call 0x19f0
00002D04  83C410            add esp,byte +0x10
00002D07  8D45F4            lea eax,[ebp-0xc]
00002D0A  C13808            sar dword [eax],0x8
00002D0D  83EC08            sub esp,byte +0x8
00002D10  0FBE45F4          movsx eax,byte [ebp-0xc]
00002D14  50                push eax
00002D15  6A04              push byte +0x4
00002D17  E8D4ECFFFF        call 0x19f0
00002D1C  83C410            add esp,byte +0x10
00002D1F  8D45F4            lea eax,[ebp-0xc]
00002D22  C13808            sar dword [eax],0x8
00002D25  83EC08            sub esp,byte +0x8
00002D28  0FBE45F4          movsx eax,byte [ebp-0xc]
00002D2C  50                push eax
00002D2D  6881000000        push dword 0x81
00002D32  E8B9ECFFFF        call 0x19f0
00002D37  83C410            add esp,byte +0x10
00002D3A  83EC08            sub esp,byte +0x8
00002D3D  6AFF              push byte -0x1
00002D3F  6A05              push byte +0x5
00002D41  E8AAECFFFF        call 0x19f0
00002D46  83C410            add esp,byte +0x10
00002D49  83EC08            sub esp,byte +0x8
00002D4C  6A01              push byte +0x1
00002D4E  6A05              push byte +0x5
00002D50  E89BECFFFF        call 0x19f0
00002D55  83C410            add esp,byte +0x10
00002D58  83EC08            sub esp,byte +0x8
00002D5B  6A02              push byte +0x2
00002D5D  6A0A              push byte +0xa
00002D5F  E88CECFFFF        call 0x19f0
00002D64  83C410            add esp,byte +0x10
00002D67  FB                sti
00002D68  8D65F8            lea esp,[ebp-0x8]
00002D6B  5E                pop esi
00002D6C  5F                pop edi
00002D6D  C9                leave
00002D6E  C3                ret
00002D6F  55                push ebp
00002D70  89E5              mov ebp,esp
00002D72  A1A0FA0000        mov eax,[0xfaa0]
00002D77  FF4004            inc dword [eax+0x4]
00002D7A  A1A0FA0000        mov eax,[0xfaa0]
00002D7F  83780404          cmp dword [eax+0x4],byte +0x4
00002D83  7E0C              jng 0x2d91
00002D85  C705B05F00000100  mov dword [0x5fb0],0x1
         -0000
00002D8F  EB0A              jmp short 0x2d9b
00002D91  C705A45F00000100  mov dword [0x5fa4],0x1
         -0000
00002D9B  C9                leave
00002D9C  C3                ret
00002D9D  55                push ebp
00002D9E  89E5              mov ebp,esp
00002DA0  57                push edi
00002DA1  56                push esi
00002DA2  E819FEFFFF        call 0x2bc0
00002DA7  83F807            cmp eax,byte +0x7
00002DAA  7529              jnz 0x2dd5
00002DAC  B0D8              mov al,0xd8
00002DAE  220568F60000      and al,[0xf668]
00002DB4  84C0              test al,al
00002DB6  751D              jnz 0x2dd5
00002DB8  B0BF              mov al,0xbf
00002DBA  220569F60000      and al,[0xf669]
00002DC0  84C0              test al,al
00002DC2  7511              jnz 0x2dd5
00002DC4  A06AF60000        mov al,[0xf66a]
00002DC9  83E073            and eax,byte +0x73
00002DCC  84C0              test al,al
00002DCE  7505              jnz 0x2dd5
00002DD0  E985000000        jmp 0x2e5a
00002DD5  83EC08            sub esp,byte +0x8
00002DD8  0FBE0568F60000    movsx eax,byte [0xf668]
00002DDF  50                push eax
00002DE0  6852430000        push dword 0x4352
00002DE5  E8ACE5FFFF        call 0x1396
00002DEA  83C410            add esp,byte +0x10
00002DED  83EC08            sub esp,byte +0x8
00002DF0  0FBE0569F60000    movsx eax,byte [0xf669]
00002DF7  50                push eax
00002DF8  6852430000        push dword 0x4352
00002DFD  E894E5FFFF        call 0x1396
00002E02  83C410            add esp,byte +0x10
00002E05  83EC08            sub esp,byte +0x8
00002E08  0FBE056AF60000    movsx eax,byte [0xf66a]
00002E0F  50                push eax
00002E10  6852430000        push dword 0x4352
00002E15  E87CE5FFFF        call 0x1396
00002E1A  83C410            add esp,byte +0x10
00002E1D  83EC0C            sub esp,byte +0xc
00002E20  6856430000        push dword 0x4356
00002E25  E86CE5FFFF        call 0x1396
00002E2A  83C410            add esp,byte +0x10
00002E2D  A069F60000        mov al,[0xf669]
00002E32  83E002            and eax,byte +0x2
00002E35  84C0              test al,al
00002E37  7464              jz 0x2e9d
00002E39  83EC08            sub esp,byte +0x8
00002E3C  6A00              push byte +0x0
00002E3E  6861430000        push dword 0x4361
00002E43  E89DE6FFFF        call 0x14e5
00002E48  83C410            add esp,byte +0x10
00002E4B  83EC0C            sub esp,byte +0xc
00002E4E  6A00              push byte +0x0
00002E50  E884080000        call 0x36d9
00002E55  83C410            add esp,byte +0x10
00002E58  EB43              jmp short 0x2e9d
00002E5A  803DC4630000E6    cmp byte [0x63c4],0xe6
00002E61  7523              jnz 0x2e86
00002E63  A1A0FA0000        mov eax,[0xfaa0]
00002E68  817810FFFF0F00    cmp dword [eax+0x10],0xfffff
00002E6F  7615              jna 0x2e86
00002E71  B900020000        mov ecx,0x200
00002E76  BEC05F0000        mov esi,0x5fc0
00002E7B  A1A0FA0000        mov eax,[0xfaa0]
00002E80  8B7810            mov edi,[eax+0x10]
00002E83  FC                cld
00002E84  F3A5              rep movsd
00002E86  83EC0C            sub esp,byte +0xc
00002E89  6A01              push byte +0x1
00002E8B  E849080000        call 0x36d9
00002E90  83C410            add esp,byte +0x10
00002E93  C705FC6B00000000  mov dword [0x6bfc],0x0
         -0000
00002E9D  8D65F8            lea esp,[ebp-0x8]
00002EA0  5E                pop esi
00002EA1  5F                pop edi
00002EA2  C9                leave
00002EA3  C3                ret
00002EA4  55                push ebp
00002EA5  89E5              mov ebp,esp
00002EA7  83EC08            sub esp,byte +0x8
00002EAA  E8D3FDFFFF        call 0x2c82
00002EAF  83EC08            sub esp,byte +0x8
00002EB2  689D2D0000        push dword 0x2d9d
00002EB7  6A06              push byte +0x6
00002EB9  E86FDDFFFF        call 0xc2d
00002EBE  83C410            add esp,byte +0x10
00002EC1  83EC0C            sub esp,byte +0xc
00002EC4  0FBE05C4630000    movsx eax,byte [0x63c4]
00002ECB  50                push eax
00002ECC  E86FFCFFFF        call 0x2b40
00002ED1  83C410            add esp,byte +0x10
00002ED4  83EC0C            sub esp,byte +0xc
00002ED7  0FB605F86B0000    movzx eax,byte [0x6bf8]
00002EDE  C1E002            shl eax,0x2
00002EE1  0FBEC0            movsx eax,al
00002EE4  50                push eax
00002EE5  E856FCFFFF        call 0x2b40
00002EEA  83C410            add esp,byte +0x10
00002EED  83EC0C            sub esp,byte +0xc
00002EF0  0FBE0508F60000    movsx eax,byte [0xf608]
00002EF7  50                push eax
00002EF8  E843FCFFFF        call 0x2b40
00002EFD  83C410            add esp,byte +0x10
00002F00  83EC0C            sub esp,byte +0xc
00002F03  0FBE05F86B0000    movsx eax,byte [0x6bf8]
00002F0A  50                push eax
00002F0B  E830FCFFFF        call 0x2b40
00002F10  83C410            add esp,byte +0x10
00002F13  83EC0C            sub esp,byte +0xc
00002F16  0FBE05386C0000    movsx eax,byte [0x6c38]
00002F1D  50                push eax
00002F1E  E81DFCFFFF        call 0x2b40
00002F23  83C410            add esp,byte +0x10
00002F26  83EC0C            sub esp,byte +0xc
00002F29  6A02              push byte +0x2
00002F2B  E810FCFFFF        call 0x2b40
00002F30  83C410            add esp,byte +0x10
00002F33  83EC0C            sub esp,byte +0xc
00002F36  6A12              push byte +0x12
00002F38  E803FCFFFF        call 0x2b40
00002F3D  83C410            add esp,byte +0x10
00002F40  83EC0C            sub esp,byte +0xc
00002F43  0FBE0574A60000    movsx eax,byte [0xa674]
00002F4A  50                push eax
00002F4B  E8F0FBFFFF        call 0x2b40
00002F50  83C410            add esp,byte +0x10
00002F53  83EC0C            sub esp,byte +0xc
00002F56  6AFF              push byte -0x1
00002F58  E8E3FBFFFF        call 0x2b40
00002F5D  83C410            add esp,byte +0x10
00002F60  C705FC6B00000100  mov dword [0x6bfc],0x1
         -0000
00002F6A  833DFC6B000000    cmp dword [0x6bfc],byte +0x0
00002F71  75F7              jnz 0x2f6a
00002F73  C9                leave
00002F74  C3                ret
00002F75  55                push ebp
00002F76  89E5              mov ebp,esp
00002F78  C9                leave
00002F79  C3                ret
00002F7A  55                push ebp
00002F7B  89E5              mov ebp,esp
00002F7D  83EC08            sub esp,byte +0x8
00002F80  83EC0C            sub esp,byte +0xc
00002F83  6A08              push byte +0x8
00002F85  E8B6FBFFFF        call 0x2b40
00002F8A  83C410            add esp,byte +0x10
00002F8D  E82EFCFFFF        call 0x2bc0
00002F92  83F802            cmp eax,byte +0x2
00002F95  7525              jnz 0x2fbc
00002F97  0FBE0568F60000    movsx eax,byte [0xf668]
00002F9E  25F8000000        and eax,0xf8
00002FA3  83F820            cmp eax,byte +0x20
00002FA6  7514              jnz 0x2fbc
00002FA8  0FBE1569F60000    movsx edx,byte [0xf669]
00002FAF  0FB605416C0000    movzx eax,byte [0x6c41]
00002FB6  39C2              cmp edx,eax
00002FB8  7502              jnz 0x2fbc
00002FBA  EB12              jmp short 0x2fce
00002FBC  83EC0C            sub esp,byte +0xc
00002FBF  687E430000        push dword 0x437e
00002FC4  E8CDE3FFFF        call 0x1396
00002FC9  83C410            add esp,byte +0x10
00002FCC  EB14              jmp short 0x2fe2
00002FCE  A069F60000        mov al,[0xf669]
00002FD3  A2426C0000        mov [0x6c42],al
00002FD8  C705246900000000  mov dword [0x6924],0x0
         -0000
00002FE2  C9                leave
00002FE3  C3                ret
00002FE4  55                push ebp
00002FE5  89E5              mov ebp,esp
00002FE7  83EC08            sub esp,byte +0x8
00002FEA  0FBE0576A60000    movsx eax,byte [0xa676]
00002FF1  390564F60000      cmp [0xf664],eax
00002FF7  7439              jz 0x3032
00002FF9  0FBE0576A60000    movsx eax,byte [0xa676]
00003000  A364F60000        mov [0xf664],eax
00003005  83EC0C            sub esp,byte +0xc
00003008  6A03              push byte +0x3
0000300A  E831FBFFFF        call 0x2b40
0000300F  83C410            add esp,byte +0x10
00003012  83EC0C            sub esp,byte +0xc
00003015  0FBE0564F60000    movsx eax,byte [0xf664]
0000301C  50                push eax
0000301D  E81EFBFFFF        call 0x2b40
00003022  83C410            add esp,byte +0x10
00003025  83EC0C            sub esp,byte +0xc
00003028  6A06              push byte +0x6
0000302A  E811FBFFFF        call 0x2b40
0000302F  83C410            add esp,byte +0x10
00003032  0FBE0575A60000    movsx eax,byte [0xa675]
00003039  3905306C0000      cmp [0x6c30],eax
0000303F  7425              jz 0x3066
00003041  83EC08            sub esp,byte +0x8
00003044  0FBE0575A60000    movsx eax,byte [0xa675]
0000304B  A3306C0000        mov [0x6c30],eax
00003050  A1306C0000        mov eax,[0x6c30]
00003055  0FBEC0            movsx eax,al
00003058  50                push eax
00003059  68F7030000        push dword 0x3f7
0000305E  E88DE9FFFF        call 0x19f0
00003063  83C410            add esp,byte +0x10
00003066  C9                leave
00003067  C3                ret
00003068  55                push ebp
00003069  89E5              mov ebp,esp
0000306B  83EC08            sub esp,byte +0x8
0000306E  83EC0C            sub esp,byte +0xc
00003071  6A08              push byte +0x8
00003073  E8C8FAFFFF        call 0x2b40
00003078  83C410            add esp,byte +0x10
0000307B  E840FBFFFF        call 0x2bc0
00003080  83F802            cmp eax,byte +0x2
00003083  7513              jnz 0x3098
00003085  0FBE0568F60000    movsx eax,byte [0xf668]
0000308C  25E0000000        and eax,0xe0
00003091  83F860            cmp eax,byte +0x60
00003094  7402              jz 0x3098
00003096  EB0C              jmp short 0x30a4
00003098  C705B05F00000100  mov dword [0x5fb0],0x1
         -0000
000030A2  EB0A              jmp short 0x30ae
000030A4  C705A45F00000000  mov dword [0x5fa4],0x0
         -0000
000030AE  E894020000        call 0x3347
000030B3  C9                leave
000030B4  C3                ret
000030B5  55                push ebp
000030B6  89E5              mov ebp,esp
000030B8  83EC08            sub esp,byte +0x8
000030BB  83EC0C            sub esp,byte +0xc
000030BE  6A08              push byte +0x8
000030C0  E87BFAFFFF        call 0x2b40
000030C5  83C410            add esp,byte +0x10
000030C8  E8F3FAFFFF        call 0x2bc0
000030CD  83F802            cmp eax,byte +0x2
000030D0  7513              jnz 0x30e5
000030D2  0FBE0568F60000    movsx eax,byte [0xf668]
000030D9  25E0000000        and eax,0xe0
000030DE  83F860            cmp eax,byte +0x60
000030E1  7402              jz 0x30e5
000030E3  EB0C              jmp short 0x30f1
000030E5  C705B05F00000100  mov dword [0x5fb0],0x1
         -0000
000030EF  EB0A              jmp short 0x30fb
000030F1  C705A45F00000100  mov dword [0x5fa4],0x1
         -0000
000030FB  C9                leave
000030FC  C3                ret
000030FD  55                push ebp
000030FE  89E5              mov ebp,esp
00003100  83EC08            sub esp,byte +0x8
00003103  C705A45F00000000  mov dword [0x5fa4],0x0
         -0000
0000310D  C605426C000000    mov byte [0x6c42],0x0
00003114  C7057CA700006830  mov dword [0xa77c],0x3068
         -0000
0000311E  83EC0C            sub esp,byte +0xc
00003121  6A07              push byte +0x7
00003123  E818FAFFFF        call 0x2b40
00003128  83C410            add esp,byte +0x10
0000312B  83EC0C            sub esp,byte +0xc
0000312E  0FB605F86B0000    movzx eax,byte [0x6bf8]
00003135  C1E002            shl eax,0x2
00003138  0FBEC0            movsx eax,al
0000313B  50                push eax
0000313C  E8FFF9FFFF        call 0x2b40
00003141  83C410            add esp,byte +0x10
00003144  833DB05F000000    cmp dword [0x5fb0],byte +0x0
0000314B  7405              jz 0x3152
0000314D  E8F5010000        call 0x3347
00003152  C9                leave
00003153  C3                ret
00003154  55                push ebp
00003155  89E5              mov ebp,esp
00003157  83EC08            sub esp,byte +0x8
0000315A  83EC0C            sub esp,byte +0xc
0000315D  6A08              push byte +0x8
0000315F  E8DCF9FFFF        call 0x2b40
00003164  83C410            add esp,byte +0x10
00003167  E854FAFFFF        call 0x2bc0
0000316C  83EC0C            sub esp,byte +0xc
0000316F  6A03              push byte +0x3
00003171  E8CAF9FFFF        call 0x2b40
00003176  83C410            add esp,byte +0x10
00003179  83EC0C            sub esp,byte +0xc
0000317C  0FBE0564F60000    movsx eax,byte [0xf664]
00003183  50                push eax
00003184  E8B7F9FFFF        call 0x2b40
00003189  83C410            add esp,byte +0x10
0000318C  83EC0C            sub esp,byte +0xc
0000318F  6A06              push byte +0x6
00003191  E8AAF9FFFF        call 0x2b40
00003196  83C410            add esp,byte +0x10
00003199  E8A9010000        call 0x3347
0000319E  C9                leave
0000319F  C3                ret
000031A0  55                push ebp
000031A1  89E5              mov ebp,esp
000031A3  83EC08            sub esp,byte +0x8
000031A6  C705B05F00000000  mov dword [0x5fb0],0x0
         -0000
000031B0  C70564F60000FFFF  mov dword [0xf664],0xffffffff
         -FFFF
000031BA  C705306C0000FFFF  mov dword [0x6c30],0xffffffff
         -FFFF
000031C4  C705A45F00000100  mov dword [0x5fa4],0x1
         -0000
000031CE  83EC0C            sub esp,byte +0xc
000031D1  688B430000        push dword 0x438b
000031D6  E80AE3FFFF        call 0x14e5
000031DB  83C410            add esp,byte +0x10
000031DE  FA                cli
000031DF  C7057CA700005431  mov dword [0xa77c],0x3154
         -0000
000031E9  83EC08            sub esp,byte +0x8
000031EC  A020690000        mov al,[0x6920]
000031F1  83E0FB            and eax,byte -0x5
000031F4  0FBEC0            movsx eax,al
000031F7  50                push eax
000031F8  68F2030000        push dword 0x3f2
000031FD  E8EEE7FFFF        call 0x19f0
00003202  83C410            add esp,byte +0x10
00003205  C745FC00000000    mov dword [ebp-0x4],0x0
0000320C  837DFC63          cmp dword [ebp-0x4],byte +0x63
00003210  7E02              jng 0x3214
00003212  EB08              jmp short 0x321c
00003214  90                nop
00003215  8D45FC            lea eax,[ebp-0x4]
00003218  FF00              inc dword [eax]
0000321A  EBF0              jmp short 0x320c
0000321C  83EC08            sub esp,byte +0x8
0000321F  0FBE0520690000    movsx eax,byte [0x6920]
00003226  50                push eax
00003227  68F2030000        push dword 0x3f2
0000322C  E8BFE7FFFF        call 0x19f0
00003231  83C410            add esp,byte +0x10
00003234  FB                sti
00003235  C9                leave
00003236  C3                ret
00003237  55                push ebp
00003238  89E5              mov ebp,esp
0000323A  83EC08            sub esp,byte +0x8
0000323D  C70588A700000000  mov dword [0xa788],0x0
         -0000
00003247  A0416C0000        mov al,[0x6c41]
0000324C  A2426C0000        mov [0x6c42],al
00003251  83EC08            sub esp,byte +0x8
00003254  687A2F0000        push dword 0x2f7a
00003259  6A06              push byte +0x6
0000325B  E8CDD9FFFF        call 0xc2d
00003260  83C410            add esp,byte +0x10
00003263  803D416C000000    cmp byte [0x6c41],0x0
0000326A  743B              jz 0x32a7
0000326C  83EC0C            sub esp,byte +0xc
0000326F  6A0F              push byte +0xf
00003271  E8CAF8FFFF        call 0x2b40
00003276  83C410            add esp,byte +0x10
00003279  83EC0C            sub esp,byte +0xc
0000327C  0FB605F86B0000    movzx eax,byte [0x6bf8]
00003283  C1E002            shl eax,0x2
00003286  0FBEC0            movsx eax,al
00003289  50                push eax
0000328A  E8B1F8FFFF        call 0x2b40
0000328F  83C410            add esp,byte +0x10
00003292  83EC0C            sub esp,byte +0xc
00003295  0FBE05416C0000    movsx eax,byte [0x6c41]
0000329C  50                push eax
0000329D  E89EF8FFFF        call 0x2b40
000032A2  83C410            add esp,byte +0x10
000032A5  EB26              jmp short 0x32cd
000032A7  83EC0C            sub esp,byte +0xc
000032AA  6A07              push byte +0x7
000032AC  E88FF8FFFF        call 0x2b40
000032B1  83C410            add esp,byte +0x10
000032B4  83EC0C            sub esp,byte +0xc
000032B7  0FB605F86B0000    movzx eax,byte [0x6bf8]
000032BE  C1E002            shl eax,0x2
000032C1  0FBEC0            movsx eax,al
000032C4  50                push eax
000032C5  E876F8FFFF        call 0x2b40
000032CA  83C410            add esp,byte +0x10
000032CD  C705246900000100  mov dword [0x6924],0x1
         -0000
000032D7  833D2469000000    cmp dword [0x6924],byte +0x0
000032DE  75F7              jnz 0x32d7
000032E0  C9                leave
000032E1  C3                ret
000032E2  55                push ebp
000032E3  89E5              mov ebp,esp
000032E5  83EC08            sub esp,byte +0x8
000032E8  C605406C000001    mov byte [0x6c40],0x1
000032EF  C605206900001C    mov byte [0x6920],0x1c
000032F6  83EC08            sub esp,byte +0x8
000032F9  0FBE0520690000    movsx eax,byte [0x6920]
00003300  50                push eax
00003301  68F2030000        push dword 0x3f2
00003306  E8E5E6FFFF        call 0x19f0
0000330B  83C410            add esp,byte +0x10
0000330E  C745FC00000000    mov dword [ebp-0x4],0x0
00003315  817DFCE7030000    cmp dword [ebp-0x4],0x3e7
0000331C  7E02              jng 0x3320
0000331E  EB20              jmp short 0x3340
00003320  C745F800000000    mov dword [ebp-0x8],0x0
00003327  817DF8E7030000    cmp dword [ebp-0x8],0x3e7
0000332E  7E02              jng 0x3332
00003330  EB07              jmp short 0x3339
00003332  8D45F8            lea eax,[ebp-0x8]
00003335  FF00              inc dword [eax]
00003337  EBEE              jmp short 0x3327
00003339  8D45FC            lea eax,[ebp-0x4]
0000333C  FF00              inc dword [eax]
0000333E  EBD5              jmp short 0x3315
00003340  E89FFCFFFF        call 0x2fe4
00003345  C9                leave
00003346  C3                ret
00003347  55                push ebp
00003348  89E5              mov ebp,esp
0000334A  83EC08            sub esp,byte +0x8
0000334D  C70588A700000000  mov dword [0xa788],0x0
         -0000
00003357  833DB05F000000    cmp dword [0x5fb0],byte +0x0
0000335E  740A              jz 0x336a
00003360  E83BFEFFFF        call 0x31a0
00003365  E919010000        jmp 0x3483
0000336A  833DA45F000000    cmp dword [0x5fa4],byte +0x0
00003371  740A              jz 0x337d
00003373  E885FDFFFF        call 0x30fd
00003378  E906010000        jmp 0x3483
0000337D  833DA0FA000000    cmp dword [0xfaa0],byte +0x0
00003384  7505              jnz 0x338b
00003386  E9F8000000        jmp 0x3483
0000338B  A1A0FA0000        mov eax,[0xfaa0]
00003390  8B4018            mov eax,[eax+0x18]
00003393  8B4010            mov eax,[eax+0x10]
00003396  8945F8            mov [ebp-0x8],eax
00003399  8B45F8            mov eax,[ebp-0x8]
0000339C  3B0560A60000      cmp eax,[0xa660]
000033A2  721D              jc 0x33c1
000033A4  83EC0C            sub esp,byte +0xc
000033A7  6A00              push byte +0x0
000033A9  E82B030000        call 0x36d9
000033AE  83C410            add esp,byte +0x10
000033B1  83EC0C            sub esp,byte +0xc
000033B4  68A0430000        push dword 0x43a0
000033B9  E827E1FFFF        call 0x14e5
000033BE  83C410            add esp,byte +0x10
000033C1  8B45F8            mov eax,[ebp-0x8]
000033C4  BA00000000        mov edx,0x0
000033C9  F73564A60000      div dword [0xa664]
000033CF  8D4201            lea eax,[edx+0x1]
000033D2  A2386C0000        mov [0x6c38],al
000033D7  8B45F8            mov eax,[ebp-0x8]
000033DA  BA00000000        mov edx,0x0
000033DF  F73564A60000      div dword [0xa664]
000033E5  8945F8            mov [ebp-0x8],eax
000033E8  8B45F8            mov eax,[ebp-0x8]
000033EB  BA00000000        mov edx,0x0
000033F0  F73568A60000      div dword [0xa668]
000033F6  8815F86B0000      mov [0x6bf8],dl
000033FC  8B45F8            mov eax,[ebp-0x8]
000033FF  BA00000000        mov edx,0x0
00003404  F73568A60000      div dword [0xa668]
0000340A  A208F60000        mov [0xf608],al
0000340F  0FB60508F60000    movzx eax,byte [0xf608]
00003416  8A0D70A60000      mov cl,[0xa670]
0000341C  D3E0              shl eax,cl
0000341E  A2416C0000        mov [0x6c41],al
00003423  A0416C0000        mov al,[0x6c41]
00003428  3A05426C0000      cmp al,[0x6c42]
0000342E  740A              jz 0x343a
00003430  C70588A700000100  mov dword [0xa788],0x1
         -0000
0000343A  A1A0FA0000        mov eax,[0xfaa0]
0000343F  833800            cmp dword [eax],byte +0x0
00003442  7509              jnz 0x344d
00003444  C605C4630000E6    mov byte [0x63c4],0xe6
0000344B  EB23              jmp short 0x3470
0000344D  A1A0FA0000        mov eax,[0xfaa0]
00003452  833801            cmp dword [eax],byte +0x1
00003455  7509              jnz 0x3460
00003457  C605C4630000C5    mov byte [0x63c4],0xc5
0000345E  EB10              jmp short 0x3470
00003460  83EC0C            sub esp,byte +0xc
00003463  68C0430000        push dword 0x43c0
00003468  E878E0FFFF        call 0x14e5
0000346D  83C410            add esp,byte +0x10
00003470  833D88A7000000    cmp dword [0xa788],byte +0x0
00003477  7405              jz 0x347e
00003479  E8B9FDFFFF        call 0x3237
0000347E  E821FAFFFF        call 0x2ea4
00003483  C9                leave
00003484  C3                ret
00003485  55                push ebp
00003486  89E5              mov ebp,esp
00003488  83EC08            sub esp,byte +0x8
0000348B  C705A45F00000000  mov dword [0x5fa4],0x0
         -0000
00003495  C705B05F00000000  mov dword [0x5fb0],0x0
         -0000
0000349F  C70588A700000000  mov dword [0xa788],0x0
         -0000
000034A9  C70564F60000FFFF  mov dword [0xf664],0xffffffff
         -FFFF
000034B3  C705306C0000FFFF  mov dword [0x6c30],0xffffffff
         -FFFF
000034BD  C605386C000000    mov byte [0x6c38],0x0
000034C4  C605F86B000000    mov byte [0x6bf8],0x0
000034CB  C60508F6000000    mov byte [0xf608],0x0
000034D2  C605416C000000    mov byte [0x6c41],0x0
000034D9  C605426C0000FF    mov byte [0x6c42],0xff
000034E0  C605C463000000    mov byte [0x63c4],0x0
000034E7  C605406C000000    mov byte [0x6c40],0x0
000034EE  C70560A60000400B  mov dword [0xa660],0xb40
         -0000
000034F8  C70564A600001200  mov dword [0xa664],0x12
         -0000
00003502  C70568A600000200  mov dword [0xa668],0x2
         -0000
0000350C  C7056CA600005000  mov dword [0xa66c],0x50
         -0000
00003516  C70570A600000000  mov dword [0xa670],0x0
         -0000
00003520  C60574A600001B    mov byte [0xa674],0x1b
00003527  C60575A6000000    mov byte [0xa675],0x0
0000352E  C60576A60000CF    mov byte [0xa676],0xcf
00003535  83EC08            sub esp,byte +0x8
00003538  68752F0000        push dword 0x2f75
0000353D  6A06              push byte +0x6
0000353F  E8E9D6FFFF        call 0xc2d
00003544  83C410            add esp,byte +0x10
00003547  83EC0C            sub esp,byte +0xc
0000354A  6A06              push byte +0x6
0000354C  E81BD5FFFF        call 0xa6c
00003551  83C410            add esp,byte +0x10
00003554  E889FDFFFF        call 0x32e2
00003559  C9                leave
0000355A  C3                ret
0000355B  90                nop
0000355C  55                push ebp
0000355D  89E5              mov ebp,esp
0000355F  83EC08            sub esp,byte +0x8
00003562  8B4508            mov eax,[ebp+0x8]
00003565  C7401C00000000    mov dword [eax+0x1c],0x0
0000356C  FA                cli
0000356D  A1A0FA0000        mov eax,[0xfaa0]
00003572  8945FC            mov [ebp-0x4],eax
00003575  85C0              test eax,eax
00003577  7510              jnz 0x3589
00003579  8B4508            mov eax,[ebp+0x8]
0000357C  A3A0FA0000        mov [0xfaa0],eax
00003581  FB                sti
00003582  E8C0FDFFFF        call 0x3347
00003587  EB21              jmp short 0x35aa
00003589  90                nop
0000358A  8B45FC            mov eax,[ebp-0x4]
0000358D  83781C00          cmp dword [eax+0x1c],byte +0x0
00003591  7502              jnz 0x3595
00003593  EB0B              jmp short 0x35a0
00003595  8B45FC            mov eax,[ebp-0x4]
00003598  8B401C            mov eax,[eax+0x1c]
0000359B  8945FC            mov [ebp-0x4],eax
0000359E  EBEA              jmp short 0x358a
000035A0  8B55FC            mov edx,[ebp-0x4]
000035A3  8B4508            mov eax,[ebp+0x8]
000035A6  89421C            mov [edx+0x1c],eax
000035A9  FB                sti
000035AA  C9                leave
000035AB  C3                ret
000035AC  55                push ebp
000035AD  89E5              mov ebp,esp
000035AF  83EC08            sub esp,byte +0x8
000035B2  FA                cli
000035B3  8B4508            mov eax,[ebp+0x8]
000035B6  83780400          cmp dword [eax+0x4],byte +0x0
000035BA  7502              jnz 0x35be
000035BC  EB13              jmp short 0x35d1
000035BE  83EC0C            sub esp,byte +0xc
000035C1  8B4508            mov eax,[ebp+0x8]
000035C4  FF7014            push dword [eax+0x14]
000035C7  E86BD7FFFF        call 0xd37
000035CC  83C410            add esp,byte +0x10
000035CF  EBE2              jmp short 0x35b3
000035D1  8B4508            mov eax,[ebp+0x8]
000035D4  C7400401000000    mov dword [eax+0x4],0x1
000035DB  FB                sti
000035DC  C9                leave
000035DD  C3                ret
000035DE  55                push ebp
000035DF  89E5              mov ebp,esp
000035E1  83EC08            sub esp,byte +0x8
000035E4  8B4508            mov eax,[ebp+0x8]
000035E7  83780400          cmp dword [eax+0x4],byte +0x0
000035EB  7510              jnz 0x35fd
000035ED  83EC0C            sub esp,byte +0xc
000035F0  68E0430000        push dword 0x43e0
000035F5  E89CDDFFFF        call 0x1396
000035FA  83C410            add esp,byte +0x10
000035FD  8B4508            mov eax,[ebp+0x8]
00003600  C7400400000000    mov dword [eax+0x4],0x0
00003607  83EC0C            sub esp,byte +0xc
0000360A  8B4508            mov eax,[ebp+0x8]
0000360D  FF7014            push dword [eax+0x14]
00003610  E85DD7FFFF        call 0xd72
00003615  83C410            add esp,byte +0x10
00003618  C9                leave
00003619  C3                ret
0000361A  55                push ebp
0000361B  89E5              mov ebp,esp
0000361D  83EC08            sub esp,byte +0x8
00003620  E845010000        call 0x376a
00003625  89C2              mov edx,eax
00003627  C1E205            shl edx,0x5
0000362A  B8A0F60000        mov eax,0xf6a0
0000362F  01D0              add eax,edx
00003631  8945FC            mov [ebp-0x4],eax
00003634  837D0800          cmp dword [ebp+0x8],byte +0x0
00003638  7418              jz 0x3652
0000363A  837D0801          cmp dword [ebp+0x8],byte +0x1
0000363E  7412              jz 0x3652
00003640  83EC0C            sub esp,byte +0xc
00003643  6820440000        push dword 0x4420
00003648  E849DDFFFF        call 0x1396
0000364D  83C410            add esp,byte +0x10
00003650  EB6C              jmp short 0x36be
00003652  83EC0C            sub esp,byte +0xc
00003655  FF750C            push dword [ebp+0xc]
00003658  E84FFFFFFF        call 0x35ac
0000365D  83C410            add esp,byte +0x10
00003660  8B55FC            mov edx,[ebp-0x4]
00003663  8B4508            mov eax,[ebp+0x8]
00003666  8902              mov [edx],eax
00003668  8B45FC            mov eax,[ebp-0x4]
0000366B  C7400400000000    mov dword [eax+0x4],0x0
00003672  8B55FC            mov edx,[ebp-0x4]
00003675  8B450C            mov eax,[ebp+0xc]
00003678  8B4010            mov eax,[eax+0x10]
0000367B  894208            mov [edx+0x8],eax
0000367E  8B45FC            mov eax,[ebp-0x4]
00003681  C7400C01000000    mov dword [eax+0xc],0x1
00003688  8B45FC            mov eax,[ebp-0x4]
0000368B  C7401400000000    mov dword [eax+0x14],0x0
00003692  8B55FC            mov edx,[ebp-0x4]
00003695  8B450C            mov eax,[ebp+0xc]
00003698  8B00              mov eax,[eax]
0000369A  894210            mov [edx+0x10],eax
0000369D  8B45FC            mov eax,[ebp-0x4]
000036A0  C7401C00000000    mov dword [eax+0x1c],0x0
000036A7  8B55FC            mov edx,[ebp-0x4]
000036AA  8B450C            mov eax,[ebp+0xc]
000036AD  894218            mov [edx+0x18],eax
000036B0  83EC0C            sub esp,byte +0xc
000036B3  FF75FC            push dword [ebp-0x4]
000036B6  E8A1FEFFFF        call 0x355c
000036BB  83C410            add esp,byte +0x10
000036BE  C9                leave
000036BF  C3                ret
000036C0  55                push ebp
000036C1  89E5              mov ebp,esp
000036C3  83EC08            sub esp,byte +0x8
000036C6  83EC08            sub esp,byte +0x8
000036C9  FF750C            push dword [ebp+0xc]
000036CC  FF7508            push dword [ebp+0x8]
000036CF  E846FFFFFF        call 0x361a
000036D4  83C410            add esp,byte +0x10
000036D7  C9                leave
000036D8  C3                ret
000036D9  55                push ebp
000036DA  89E5              mov ebp,esp
000036DC  83EC08            sub esp,byte +0x8
000036DF  A1A0FA0000        mov eax,[0xfaa0]
000036E4  C700FFFFFFFF      mov dword [eax],0xffffffff
000036EA  A1A0FA0000        mov eax,[0xfaa0]
000036EF  83781800          cmp dword [eax+0x18],byte +0x0
000036F3  7421              jz 0x3716
000036F5  A1A0FA0000        mov eax,[0xfaa0]
000036FA  8B5018            mov edx,[eax+0x18]
000036FD  8B4508            mov eax,[ebp+0x8]
00003700  89420C            mov [edx+0xc],eax
00003703  83EC0C            sub esp,byte +0xc
00003706  A1A0FA0000        mov eax,[0xfaa0]
0000370B  FF7018            push dword [eax+0x18]
0000370E  E8CBFEFFFF        call 0x35de
00003713  83C410            add esp,byte +0x10
00003716  837D0800          cmp dword [ebp+0x8],byte +0x0
0000371A  752B              jnz 0x3747
0000371C  83EC0C            sub esp,byte +0xc
0000371F  6843440000        push dword 0x4443
00003724  E8BCDDFFFF        call 0x14e5
00003729  83C410            add esp,byte +0x10
0000372C  83EC08            sub esp,byte +0x8
0000372F  A1A0FA0000        mov eax,[0xfaa0]
00003734  8B4018            mov eax,[eax+0x18]
00003737  FF7010            push dword [eax+0x10]
0000373A  684F440000        push dword 0x444f
0000373F  E8A1DDFFFF        call 0x14e5
00003744  83C410            add esp,byte +0x10
00003747  83EC0C            sub esp,byte +0xc
0000374A  A1A0FA0000        mov eax,[0xfaa0]
0000374F  83C014            add eax,byte +0x14
00003752  50                push eax
00003753  E81AD6FFFF        call 0xd72
00003758  83C410            add esp,byte +0x10
0000375B  A1A0FA0000        mov eax,[0xfaa0]
00003760  8B401C            mov eax,[eax+0x1c]
00003763  A3A0FA0000        mov [0xfaa0],eax
00003768  C9                leave
00003769  C3                ret
0000376A  55                push ebp
0000376B  89E5              mov ebp,esp
0000376D  83EC08            sub esp,byte +0x8
00003770  C745FC00000000    mov dword [ebp-0x4],0x0
00003777  837DFC1F          cmp dword [ebp-0x4],byte +0x1f
0000377B  7E02              jng 0x377f
0000377D  EB1E              jmp short 0x379d
0000377F  8B45FC            mov eax,[ebp-0x4]
00003782  C1E005            shl eax,0x5
00003785  83B8A0F60000FF    cmp dword [eax+0xf6a0],byte -0x1
0000378C  7508              jnz 0x3796
0000378E  8B45FC            mov eax,[ebp-0x4]
00003791  8945F8            mov [ebp-0x8],eax
00003794  EB0E              jmp short 0x37a4
00003796  8D45FC            lea eax,[ebp-0x4]
00003799  FF00              inc dword [eax]
0000379B  EBDA              jmp short 0x3777
0000379D  C745F8FFFFFFFF    mov dword [ebp-0x8],0xffffffff
000037A4  8B45F8            mov eax,[ebp-0x8]
000037A7  C9                leave
000037A8  C3                ret
000037A9  55                push ebp
000037AA  89E5              mov ebp,esp
000037AC  83EC04            sub esp,byte +0x4
000037AF  C705A0FA00000000  mov dword [0xfaa0],0x0
         -0000
000037B9  C745FC00000000    mov dword [ebp-0x4],0x0
000037C0  837DFC1F          cmp dword [ebp-0x4],byte +0x1f
000037C4  7E02              jng 0x37c8
000037C6  EB17              jmp short 0x37df
000037C8  8B45FC            mov eax,[ebp-0x4]
000037CB  C1E005            shl eax,0x5
000037CE  C780A0F60000FFFF  mov dword [eax+0xf6a0],0xffffffff
         -FFFF
000037D8  8D45FC            lea eax,[ebp-0x4]
000037DB  FF00              inc dword [eax]
000037DD  EBE1              jmp short 0x37c0
000037DF  C9                leave
000037E0  C3                ret
000037E1  90                nop
000037E2  90                nop
000037E3  90                nop
000037E4  55                push ebp
000037E5  89E5              mov ebp,esp
000037E7  53                push ebx
000037E8  83EC04            sub esp,byte +0x4
000037EB  C745F800000000    mov dword [ebp-0x8],0x0
000037F2  837DF807          cmp dword [ebp-0x8],byte +0x7
000037F6  7E05              jng 0x37fd
000037F8  E989010000        jmp 0x3986
000037FD  8B55F8            mov edx,[ebp-0x8]
00003800  89D0              mov eax,edx
00003802  C1E002            shl eax,0x2
00003805  01D0              add eax,edx
00003807  C1E002            shl eax,0x2
0000380A  01D0              add eax,edx
0000380C  8D1CC500000000    lea ebx,[eax*8+0x0]
00003813  8B55F8            mov edx,[ebp-0x8]
00003816  89D0              mov eax,edx
00003818  C1E002            shl eax,0x2
0000381B  01D0              add eax,edx
0000381D  C1E002            shl eax,0x2
00003820  01D0              add eax,edx
00003822  8D0CC500000000    lea ecx,[eax*8+0x0]
00003829  8B55F8            mov edx,[ebp-0x8]
0000382C  89D0              mov eax,edx
0000382E  C1E002            shl eax,0x2
00003831  01D0              add eax,edx
00003833  C1E002            shl eax,0x2
00003836  01D0              add eax,edx
00003838  C1E003            shl eax,0x3
0000383B  C780686400000000  mov dword [eax+0x6468],0x0
         -0000
00003845  C781646400000000  mov dword [ecx+0x6464],0x0
         -0000
0000384F  C783606400000000  mov dword [ebx+0x6460],0x0
         -0000
00003859  8B55F8            mov edx,[ebp-0x8]
0000385C  89D0              mov eax,edx
0000385E  C1E002            shl eax,0x2
00003861  01D0              add eax,edx
00003863  C1E002            shl eax,0x2
00003866  01D0              add eax,edx
00003868  8D0CC500000000    lea ecx,[eax*8+0x0]
0000386F  8B45F8            mov eax,[ebp-0x8]
00003872  89C2              mov edx,eax
00003874  C1E20C            shl edx,0xc
00003877  89D0              mov eax,edx
00003879  C1F81F            sar eax,0x1f
0000387C  C1E81F            shr eax,0x1f
0000387F  8D0410            lea eax,[eax+edx]
00003882  D1F8              sar eax,1
00003884  898174640000      mov [ecx+0x6474],eax
0000388A  8B55F8            mov edx,[ebp-0x8]
0000388D  89D0              mov eax,edx
0000388F  C1E002            shl eax,0x2
00003892  01D0              add eax,edx
00003894  C1E002            shl eax,0x2
00003897  01D0              add eax,edx
00003899  8D0CC500000000    lea ecx,[eax*8+0x0]
000038A0  8B45F8            mov eax,[ebp-0x8]
000038A3  89C2              mov edx,eax
000038A5  C1E20C            shl edx,0xc
000038A8  89D0              mov eax,edx
000038AA  C1F81F            sar eax,0x1f
000038AD  C1E81F            shr eax,0x1f
000038B0  8D0410            lea eax,[eax+edx]
000038B3  D1F8              sar eax,1
000038B5  898178640000      mov [ecx+0x6478],eax
000038BB  8B55F8            mov edx,[ebp-0x8]
000038BE  89D0              mov eax,edx
000038C0  C1E002            shl eax,0x2
000038C3  01D0              add eax,edx
000038C5  C1E002            shl eax,0x2
000038C8  01D0              add eax,edx
000038CA  8D0CC500000000    lea ecx,[eax*8+0x0]
000038D1  8B45F8            mov eax,[ebp-0x8]
000038D4  89C2              mov edx,eax
000038D6  C1E20C            shl edx,0xc
000038D9  89D0              mov eax,edx
000038DB  C1F81F            sar eax,0x1f
000038DE  C1E81F            shr eax,0x1f
000038E1  8D0410            lea eax,[eax+edx]
000038E4  D1F8              sar eax,1
000038E6  898180640000      mov [ecx+0x6480],eax
000038EC  8B55F8            mov edx,[ebp-0x8]
000038EF  89D0              mov eax,edx
000038F1  C1E002            shl eax,0x2
000038F4  01D0              add eax,edx
000038F6  C1E002            shl eax,0x2
000038F9  01D0              add eax,edx
000038FB  8D0CC500000000    lea ecx,[eax*8+0x0]
00003902  8B55F8            mov edx,[ebp-0x8]
00003905  89D0              mov eax,edx
00003907  C1E002            shl eax,0x2
0000390A  01D0              add eax,edx
0000390C  C1E002            shl eax,0x2
0000390F  01D0              add eax,edx
00003911  C1E003            shl eax,0x3
00003914  8B8078640000      mov eax,[eax+0x6478]
0000391A  05D0070000        add eax,0x7d0
0000391F  89817C640000      mov [ecx+0x647c],eax
00003925  8B55F8            mov edx,[ebp-0x8]
00003928  89D0              mov eax,edx
0000392A  C1E002            shl eax,0x2
0000392D  01D0              add eax,edx
0000392F  C1E002            shl eax,0x2
00003932  01D0              add eax,edx
00003934  C1E003            shl eax,0x3
00003937  C780846400000080  mov dword [eax+0x6484],0xb8000
         -0B00
00003941  8B55F8            mov edx,[ebp-0x8]
00003944  89D0              mov eax,edx
00003946  C1E002            shl eax,0x2
00003949  01D0              add eax,edx
0000394B  C1E002            shl eax,0x2
0000394E  01D0              add eax,edx
00003950  8D14C500000000    lea edx,[eax*8+0x0]
00003957  8B45F8            mov eax,[ebp-0x8]
0000395A  89826C640000      mov [edx+0x646c],eax
00003960  8B55F8            mov edx,[ebp-0x8]
00003963  89D0              mov eax,edx
00003965  C1E002            shl eax,0x2
00003968  01D0              add eax,edx
0000396A  C1E002            shl eax,0x2
0000396D  01D0              add eax,edx
0000396F  C1E003            shl eax,0x3
00003972  C780706400000100  mov dword [eax+0x6470],0x1
         -0000
0000397C  8D45F8            lea eax,[ebp-0x8]
0000397F  FF00              inc dword [eax]
00003981  E96CFEFFFF        jmp 0x37f2
00003986  C745F800800B00    mov dword [ebp-0x8],0xb8000
0000398D  817DF8FFFF0B00    cmp dword [ebp-0x8],0xbffff
00003994  7E02              jng 0x3998
00003996  EB14              jmp short 0x39ac
00003998  8B45F8            mov eax,[ebp-0x8]
0000399B  030580F60000      add eax,[0xf680]
000039A1  C60020            mov byte [eax],0x20
000039A4  8D45F8            lea eax,[ebp-0x8]
000039A7  830002            add dword [eax],byte +0x2
000039AA  EBE1              jmp short 0x398d
000039AC  C705A05F0000E063  mov dword [0x5fa0],0x63e0
         -0000
000039B6  B800000000        mov eax,0x0
000039BB  83C404            add esp,byte +0x4
000039BE  5B                pop ebx
000039BF  C9                leave
000039C0  C3                ret
000039C1  55                push ebp
000039C2  89E5              mov ebp,esp
000039C4  83EC08            sub esp,byte +0x8
000039C7  817D080F010000    cmp dword [ebp+0x8],0x10f
000039CE  7642              jna 0x3a12
000039D0  817D0817010000    cmp dword [ebp+0x8],0x117
000039D7  7739              ja 0x3a12
000039D9  8B5508            mov edx,[ebp+0x8]
000039DC  89D0              mov eax,edx
000039DE  C1E002            shl eax,0x2
000039E1  01D0              add eax,edx
000039E3  C1E002            shl eax,0x2
000039E6  01D0              add eax,edx
000039E8  8D14C500000000    lea edx,[eax*8+0x0]
000039EF  B8E0630000        mov eax,0x63e0
000039F4  2D80B20000        sub eax,0xb280
000039F9  8D0410            lea eax,[eax+edx]
000039FC  A3A05F0000        mov [0x5fa0],eax
00003A01  83EC0C            sub esp,byte +0xc
00003A04  FF35A05F0000      push dword [0x5fa0]
00003A0A  E873EEFFFF        call 0x2882
00003A0F  83C410            add esp,byte +0x10
00003A12  C9                leave
00003A13  C3                ret
00003A14  55                push ebp
00003A15  89E5              mov ebp,esp
00003A17  83EC08            sub esp,byte +0x8
00003A1A  83EC08            sub esp,byte +0x8
00003A1D  FF35A05F0000      push dword [0x5fa0]
00003A23  FF7508            push dword [ebp+0x8]
00003A26  E879F0FFFF        call 0x2aa4
00003A2B  83C410            add esp,byte +0x10
00003A2E  C9                leave
00003A2F  C3                ret
00003A30  55                push ebp
00003A31  89E5              mov ebp,esp
00003A33  83EC08            sub esp,byte +0x8
00003A36  8B450C            mov eax,[ebp+0xc]
00003A39  8945FC            mov [ebp-0x4],eax
00003A3C  8B4510            mov eax,[ebp+0x10]
00003A3F  8945F8            mov [ebp-0x8],eax
00003A42  837DF800          cmp dword [ebp-0x8],byte +0x0
00003A46  7502              jnz 0x3a4a
00003A48  EB3E              jmp short 0x3a88
00003A4A  8B45FC            mov eax,[ebp-0x4]
00003A4D  0FBE00            movsx eax,byte [eax]
00003A50  83F80A            cmp eax,byte +0xa
00003A53  7402              jz 0x3a57
00003A55  EB10              jmp short 0x3a67
00003A57  83EC0C            sub esp,byte +0xc
00003A5A  FF7508            push dword [ebp+0x8]
00003A5D  E876EFFFFF        call 0x29d8
00003A62  83C410            add esp,byte +0x10
00003A65  EB15              jmp short 0x3a7c
00003A67  83EC08            sub esp,byte +0x8
00003A6A  FF7508            push dword [ebp+0x8]
00003A6D  8B45FC            mov eax,[ebp-0x4]
00003A70  0FBE00            movsx eax,byte [eax]
00003A73  50                push eax
00003A74  E83BEEFFFF        call 0x28b4
00003A79  83C410            add esp,byte +0x10
00003A7C  8D45FC            lea eax,[ebp-0x4]
00003A7F  FF00              inc dword [eax]
00003A81  8D45F8            lea eax,[ebp-0x8]
00003A84  FF08              dec dword [eax]
00003A86  EBBA              jmp short 0x3a42
00003A88  C9                leave
00003A89  C3                ret
00003A8A  90                nop
00003A8B  90                nop
00003A8C  55                push ebp
00003A8D  89E5              mov ebp,esp
00003A8F  83EC04            sub esp,byte +0x4
00003A92  C745FC00000000    mov dword [ebp-0x4],0x0
00003A99  837DFC3F          cmp dword [ebp-0x4],byte +0x3f
00003A9D  7E02              jng 0x3aa1
00003A9F  EB42              jmp short 0x3ae3
00003AA1  8B55FC            mov edx,[ebp-0x4]
00003AA4  89D0              mov eax,edx
00003AA6  C1E003            shl eax,0x3
00003AA9  29D0              sub eax,edx
00003AAB  C1E002            shl eax,0x2
00003AAE  01D0              add eax,edx
00003AB0  8D14C500000000    lea edx,[eax*8+0x0]
00003AB7  8B45FC            mov eax,[ebp-0x4]
00003ABA  8982606C0000      mov [edx+0x6c60],eax
00003AC0  8B55FC            mov edx,[ebp-0x4]
00003AC3  89D0              mov eax,edx
00003AC5  C1E003            shl eax,0x3
00003AC8  29D0              sub eax,edx
00003ACA  C1E002            shl eax,0x2
00003ACD  01D0              add eax,edx
00003ACF  C1E003            shl eax,0x3
00003AD2  C780446D00000000  mov dword [eax+0x6d44],0x0
         -0000
00003ADC  8D45FC            lea eax,[ebp-0x4]
00003ADF  FF00              inc dword [eax]
00003AE1  EBB6              jmp short 0x3a99
00003AE3  C705A0A700000000  mov dword [0xa7a0],0x0
         -0000
00003AED  C705A4A700000000  mov dword [0xa7a4],0x0
         -0000
00003AF7  C705A8A700000000  mov dword [0xa7a8],0x0
         -0000
00003B01  C705ACA700000000  mov dword [0xa7ac],0x0
         -0000
00003B0B  C9                leave
00003B0C  C3                ret
00003B0D  55                push ebp
00003B0E  89E5              mov ebp,esp
00003B10  8B4508            mov eax,[ebp+0x8]
00003B13  C7400400000000    mov dword [eax+0x4],0x0
00003B1A  8B4508            mov eax,[ebp+0x8]
00003B1D  C7400800000000    mov dword [eax+0x8],0x0
00003B24  8B4508            mov eax,[ebp+0x8]
00003B27  C7400C00000000    mov dword [eax+0xc],0x0
00003B2E  8B4508            mov eax,[ebp+0x8]
00003B31  C7401400000000    mov dword [eax+0x14],0x0
00003B38  C9                leave
00003B39  C3                ret
00003B3A  55                push ebp
00003B3B  89E5              mov ebp,esp
00003B3D  83EC18            sub esp,byte +0x18
00003B40  C745FC00000000    mov dword [ebp-0x4],0x0
00003B47  837DFC3F          cmp dword [ebp-0x4],byte +0x3f
00003B4B  7E05              jng 0x3b52
00003B4D  E98B000000        jmp 0x3bdd
00003B52  8B55FC            mov edx,[ebp-0x4]
00003B55  89D0              mov eax,edx
00003B57  C1E003            shl eax,0x3
00003B5A  29D0              sub eax,edx
00003B5C  C1E002            shl eax,0x2
00003B5F  01D0              add eax,edx
00003B61  C1E003            shl eax,0x3
00003B64  83B8446D000000    cmp dword [eax+0x6d44],byte +0x0
00003B6B  7568              jnz 0x3bd5
00003B6D  8B55FC            mov edx,[ebp-0x4]
00003B70  89D0              mov eax,edx
00003B72  C1E003            shl eax,0x3
00003B75  29D0              sub eax,edx
00003B77  C1E002            shl eax,0x2
00003B7A  01D0              add eax,edx
00003B7C  C1E003            shl eax,0x3
00003B7F  C780446D00000100  mov dword [eax+0x6d44],0x1
         -0000
00003B89  C745F800000000    mov dword [ebp-0x8],0x0
00003B90  837DF807          cmp dword [ebp-0x8],byte +0x7
00003B94  7E02              jng 0x3b98
00003B96  EB3D              jmp short 0x3bd5
00003B98  83EC0C            sub esp,byte +0xc
00003B9B  8B55FC            mov edx,[ebp-0x4]
00003B9E  89D0              mov eax,edx
00003BA0  C1E003            shl eax,0x3
00003BA3  29D0              sub eax,edx
00003BA5  C1E002            shl eax,0x2
00003BA8  01D0              add eax,edx
00003BAA  8D0CC500000000    lea ecx,[eax*8+0x0]
00003BB1  8B55F8            mov edx,[ebp-0x8]
00003BB4  89D0              mov eax,edx
00003BB6  D1E0              shl eax,1
00003BB8  01D0              add eax,edx
00003BBA  C1E003            shl eax,0x3
00003BBD  8D0408            lea eax,[eax+ecx]
00003BC0  05846C0000        add eax,0x6c84
00003BC5  50                push eax
00003BC6  E842FFFFFF        call 0x3b0d
00003BCB  83C410            add esp,byte +0x10
00003BCE  8D45F8            lea eax,[ebp-0x8]
00003BD1  FF00              inc dword [eax]
00003BD3  EBBB              jmp short 0x3b90
00003BD5  8B45FC            mov eax,[ebp-0x4]
00003BD8  8945F4            mov [ebp-0xc],eax
00003BDB  EB00              jmp short 0x3bdd
00003BDD  8B45F4            mov eax,[ebp-0xc]
00003BE0  C9                leave
00003BE1  C3                ret
00003BE2  55                push ebp
00003BE3  89E5              mov ebp,esp
00003BE5  83EC14            sub esp,byte +0x14
00003BE8  8B4508            mov eax,[ebp+0x8]
00003BEB  83E001            and eax,byte +0x1
00003BEE  8945FC            mov [ebp-0x4],eax
00003BF1  D17D08            sar dword [ebp+0x8],1
00003BF4  8B5508            mov edx,[ebp+0x8]
00003BF7  89D0              mov eax,edx
00003BF9  D1E0              shl eax,1
00003BFB  01D0              add eax,edx
00003BFD  894508            mov [ebp+0x8],eax
00003C00  8B4508            mov eax,[ebp+0x8]
00003C03  05B0C30000        add eax,0xc3b0
00003C08  0FB600            movzx eax,byte [eax]
00003C0B  8945F4            mov [ebp-0xc],eax
00003C0E  8B4508            mov eax,[ebp+0x8]
00003C11  05B1C30000        add eax,0xc3b1
00003C16  0FB600            movzx eax,byte [eax]
00003C19  8945F0            mov [ebp-0x10],eax
00003C1C  8B4508            mov eax,[ebp+0x8]
00003C1F  05B2C30000        add eax,0xc3b2
00003C24  0FB600            movzx eax,byte [eax]
00003C27  8945EC            mov [ebp-0x14],eax
00003C2A  837DFC00          cmp dword [ebp-0x4],byte +0x0
00003C2E  7415              jz 0x3c45
00003C30  8B45F0            mov eax,[ebp-0x10]
00003C33  89C2              mov edx,eax
00003C35  C1FA04            sar edx,0x4
00003C38  8B45EC            mov eax,[ebp-0x14]
00003C3B  C1E004            shl eax,0x4
00003C3E  09D0              or eax,edx
00003C40  8945F8            mov [ebp-0x8],eax
00003C43  EB0F              jmp short 0x3c54
00003C45  8B45F0            mov eax,[ebp-0x10]
00003C48  83E00F            and eax,byte +0xf
00003C4B  C1E008            shl eax,0x8
00003C4E  0B45F4            or eax,[ebp-0xc]
00003C51  8945F8            mov [ebp-0x8],eax
00003C54  8B45F8            mov eax,[ebp-0x8]
00003C57  C9                leave
00003C58  C3                ret
00003C59  55                push ebp
00003C5A  89E5              mov ebp,esp
00003C5C  83EC18            sub esp,byte +0x18
00003C5F  A13C6C0000        mov eax,[0x6c3c]
00003C64  8B9098020000      mov edx,[eax+0x298]
00003C6A  89D0              mov eax,edx
00003C6C  C1E003            shl eax,0x3
00003C6F  29D0              sub eax,edx
00003C71  C1E002            shl eax,0x2
00003C74  01D0              add eax,edx
00003C76  C1E003            shl eax,0x3
00003C79  0FB7807E6C0000    movzx eax,word [eax+0x6c7e]
00003C80  8945FC            mov [ebp-0x4],eax
00003C83  8B450C            mov eax,[ebp+0xc]
00003C86  05FF010000        add eax,0x1ff
00003C8B  C1E809            shr eax,0x9
00003C8E  8945F8            mov [ebp-0x8],eax
00003C91  8D45F8            lea eax,[ebp-0x8]
00003C94  FF08              dec dword [eax]
00003C96  837DF8FF          cmp dword [ebp-0x8],byte -0x1
00003C9A  7502              jnz 0x3c9e
00003C9C  EB13              jmp short 0x3cb1
00003C9E  83EC0C            sub esp,byte +0xc
00003CA1  FF75FC            push dword [ebp-0x4]
00003CA4  E839FFFFFF        call 0x3be2
00003CA9  83C410            add esp,byte +0x10
00003CAC  8945FC            mov [ebp-0x4],eax
00003CAF  EBE0              jmp short 0x3c91
00003CB1  8B450C            mov eax,[ebp+0xc]
00003CB4  C1E80C            shr eax,0xc
00003CB7  8945F4            mov [ebp-0xc],eax
00003CBA  8B4DF4            mov ecx,[ebp-0xc]
00003CBD  A13C6C0000        mov eax,[0x6c3c]
00003CC2  8B9098020000      mov edx,[eax+0x298]
00003CC8  89D0              mov eax,edx
00003CCA  C1E003            shl eax,0x3
00003CCD  29D0              sub eax,edx
00003CCF  C1E002            shl eax,0x2
00003CD2  01D0              add eax,edx
00003CD4  8D14C500000000    lea edx,[eax*8+0x0]
00003CDB  89C8              mov eax,ecx
00003CDD  D1E0              shl eax,1
00003CDF  01C8              add eax,ecx
00003CE1  C1E003            shl eax,0x3
00003CE4  8D0410            lea eax,[eax+edx]
00003CE7  8D90946C0000      lea edx,[eax+0x6c94]
00003CED  8B45FC            mov eax,[ebp-0x4]
00003CF0  83C01F            add eax,byte +0x1f
00003CF3  8902              mov [edx],eax
00003CF5  83EC08            sub esp,byte +0x8
00003CF8  A13C6C0000        mov eax,[0x6c3c]
00003CFD  8B9098020000      mov edx,[eax+0x298]
00003D03  89D0              mov eax,edx
00003D05  C1E003            shl eax,0x3
00003D08  29D0              sub eax,edx
00003D0A  C1E002            shl eax,0x2
00003D0D  01D0              add eax,edx
00003D0F  8D0CC500000000    lea ecx,[eax*8+0x0]
00003D16  8B55F4            mov edx,[ebp-0xc]
00003D19  89D0              mov eax,edx
00003D1B  D1E0              shl eax,1
00003D1D  01D0              add eax,edx
00003D1F  C1E003            shl eax,0x3
00003D22  8D0408            lea eax,[eax+ecx]
00003D25  05846C0000        add eax,0x6c84
00003D2A  50                push eax
00003D2B  FF7508            push dword [ebp+0x8]
00003D2E  E88DF9FFFF        call 0x36c0
00003D33  83C410            add esp,byte +0x10
00003D36  C9                leave
00003D37  C3                ret
00003D38  55                push ebp
00003D39  89E5              mov ebp,esp
00003D3B  83EC28            sub esp,byte +0x28
00003D3E  E8F7FDFFFF        call 0x3b3a
00003D43  8945F0            mov [ebp-0x10],eax
00003D46  8B153C6C0000      mov edx,[0x6c3c]
00003D4C  8B45F0            mov eax,[ebp-0x10]
00003D4F  898298020000      mov [edx+0x298],eax
00003D55  C745FC00000000    mov dword [ebp-0x4],0x0
00003D5C  817DFCDF000000    cmp dword [ebp-0x4],0xdf
00003D63  7E05              jng 0x3d6a
00003D65  E98C000000        jmp 0x3df6
00003D6A  8B45FC            mov eax,[ebp-0x4]
00003D6D  C1E005            shl eax,0x5
00003D70  8945F4            mov [ebp-0xc],eax
00003D73  8B45F4            mov eax,[ebp-0xc]
00003D76  05B0A70000        add eax,0xa7b0
00003D7B  8945E8            mov [ebp-0x18],eax
00003D7E  C745EC00000000    mov dword [ebp-0x14],0x0
00003D85  C745F800000000    mov dword [ebp-0x8],0x0
00003D8C  837DF807          cmp dword [ebp-0x8],byte +0x7
00003D90  7E02              jng 0x3d94
00003D92  EB52              jmp short 0x3de6
00003D94  8B45E8            mov eax,[ebp-0x18]
00003D97  803820            cmp byte [eax],0x20
00003D9A  740D              jz 0x3da9
00003D9C  8B45F8            mov eax,[ebp-0x8]
00003D9F  034508            add eax,[ebp+0x8]
00003DA2  80382E            cmp byte [eax],0x2e
00003DA5  7402              jz 0x3da9
00003DA7  EB15              jmp short 0x3dbe
00003DA9  8B45E8            mov eax,[ebp-0x18]
00003DAC  803820            cmp byte [eax],0x20
00003DAF  750D              jnz 0x3dbe
00003DB1  8B45F8            mov eax,[ebp-0x8]
00003DB4  034508            add eax,[ebp+0x8]
00003DB7  80382E            cmp byte [eax],0x2e
00003DBA  7502              jnz 0x3dbe
00003DBC  EB28              jmp short 0x3de6
00003DBE  8B4DE8            mov ecx,[ebp-0x18]
00003DC1  8B45F8            mov eax,[ebp-0x8]
00003DC4  8B5508            mov edx,[ebp+0x8]
00003DC7  01C2              add edx,eax
00003DC9  8A01              mov al,[ecx]
00003DCB  3A02              cmp al,[edx]
00003DCD  7502              jnz 0x3dd1
00003DCF  EB09              jmp short 0x3dda
00003DD1  C745EC01000000    mov dword [ebp-0x14],0x1
00003DD8  EB0C              jmp short 0x3de6
00003DDA  8D45F8            lea eax,[ebp-0x8]
00003DDD  FF00              inc dword [eax]
00003DDF  8D45E8            lea eax,[ebp-0x18]
00003DE2  FF00              inc dword [eax]
00003DE4  EBA6              jmp short 0x3d8c
00003DE6  837DEC00          cmp dword [ebp-0x14],byte +0x0
00003DEA  740A              jz 0x3df6
00003DEC  8D45FC            lea eax,[ebp-0x4]
00003DEF  FF00              inc dword [eax]
00003DF1  E966FFFFFF        jmp 0x3d5c
00003DF6  817DFCE0000000    cmp dword [ebp-0x4],0xe0
00003DFD  750C              jnz 0x3e0b
00003DFF  C745E000000000    mov dword [ebp-0x20],0x0
00003E06  E9B3010000        jmp 0x3fbe
00003E0B  C745FC00000000    mov dword [ebp-0x4],0x0
00003E12  8B45FC            mov eax,[ebp-0x4]
00003E15  034508            add eax,[ebp+0x8]
00003E18  80382E            cmp byte [eax],0x2e
00003E1B  7502              jnz 0x3e1f
00003E1D  EB2D              jmp short 0x3e4c
00003E1F  8B55F0            mov edx,[ebp-0x10]
00003E22  89D0              mov eax,edx
00003E24  C1E003            shl eax,0x3
00003E27  29D0              sub eax,edx
00003E29  C1E002            shl eax,0x2
00003E2C  01D0              add eax,edx
00003E2E  C1E003            shl eax,0x3
00003E31  0345FC            add eax,[ebp-0x4]
00003E34  8D90606C0000      lea edx,[eax+0x6c60]
00003E3A  8B45FC            mov eax,[ebp-0x4]
00003E3D  034508            add eax,[ebp+0x8]
00003E40  8A00              mov al,[eax]
00003E42  884204            mov [edx+0x4],al
00003E45  8D45FC            lea eax,[ebp-0x4]
00003E48  FF00              inc dword [eax]
00003E4A  EBC6              jmp short 0x3e12
00003E4C  8B55F0            mov edx,[ebp-0x10]
00003E4F  89D0              mov eax,edx
00003E51  C1E003            shl eax,0x3
00003E54  29D0              sub eax,edx
00003E56  C1E002            shl eax,0x2
00003E59  01D0              add eax,edx
00003E5B  C1E003            shl eax,0x3
00003E5E  0345FC            add eax,[ebp-0x4]
00003E61  05606C0000        add eax,0x6c60
00003E66  C6400400          mov byte [eax+0x4],0x0
00003E6A  C745F800000000    mov dword [ebp-0x8],0x0
00003E71  837DF802          cmp dword [ebp-0x8],byte +0x2
00003E75  7E02              jng 0x3e79
00003E77  EB32              jmp short 0x3eab
00003E79  8B55F0            mov edx,[ebp-0x10]
00003E7C  89D0              mov eax,edx
00003E7E  C1E003            shl eax,0x3
00003E81  29D0              sub eax,edx
00003E83  C1E002            shl eax,0x2
00003E86  01D0              add eax,edx
00003E88  C1E003            shl eax,0x3
00003E8B  0345F8            add eax,[ebp-0x8]
00003E8E  8D90606C0000      lea edx,[eax+0x6c60]
00003E94  8D45FC            lea eax,[ebp-0x4]
00003E97  FF00              inc dword [eax]
00003E99  8B45FC            mov eax,[ebp-0x4]
00003E9C  034508            add eax,[ebp+0x8]
00003E9F  8A00              mov al,[eax]
00003EA1  88420C            mov [edx+0xc],al
00003EA4  8D45F8            lea eax,[ebp-0x8]
00003EA7  FF00              inc dword [eax]
00003EA9  EBC6              jmp short 0x3e71
00003EAB  8B55F0            mov edx,[ebp-0x10]
00003EAE  89D0              mov eax,edx
00003EB0  C1E003            shl eax,0x3
00003EB3  29D0              sub eax,edx
00003EB5  C1E002            shl eax,0x2
00003EB8  01D0              add eax,edx
00003EBA  C1E003            shl eax,0x3
00003EBD  66C7807E6C000000  mov word [eax+0x6c7e],0x0
         -00
00003EC6  8B55F0            mov edx,[ebp-0x10]
00003EC9  89D0              mov eax,edx
00003ECB  C1E003            shl eax,0x3
00003ECE  29D0              sub eax,edx
00003ED0  C1E002            shl eax,0x2
00003ED3  01D0              add eax,edx
00003ED5  8D14C500000000    lea edx,[eax*8+0x0]
00003EDC  8B45F4            mov eax,[ebp-0xc]
00003EDF  05CAA70000        add eax,0xa7ca
00003EE4  660FB600          movzx ax,[eax]
00003EE8  6689827E6C0000    mov [edx+0x6c7e],ax
00003EEF  8B55F0            mov edx,[ebp-0x10]
00003EF2  89D0              mov eax,edx
00003EF4  C1E003            shl eax,0x3
00003EF7  29D0              sub eax,edx
00003EF9  C1E002            shl eax,0x2
00003EFC  01D0              add eax,edx
00003EFE  8D14C500000000    lea edx,[eax*8+0x0]
00003F05  8B45F4            mov eax,[ebp-0xc]
00003F08  05CCA70000        add eax,0xa7cc
00003F0D  0FB600            movzx eax,byte [eax]
00003F10  8982806C0000      mov [edx+0x6c80],eax
00003F16  8B55F0            mov edx,[ebp-0x10]
00003F19  89D0              mov eax,edx
00003F1B  C1E003            shl eax,0x3
00003F1E  29D0              sub eax,edx
00003F20  C1E002            shl eax,0x2
00003F23  01D0              add eax,edx
00003F25  C1E003            shl eax,0x3
00003F28  C780846C00000000  mov dword [eax+0x6c84],0x40000000
         -0040
00003F32  8B55F0            mov edx,[ebp-0x10]
00003F35  89D0              mov eax,edx
00003F37  C1E003            shl eax,0x3
00003F3A  29D0              sub eax,edx
00003F3C  C1E002            shl eax,0x2
00003F3F  01D0              add eax,edx
00003F41  8D0CC500000000    lea ecx,[eax*8+0x0]
00003F48  8B55F0            mov edx,[ebp-0x10]
00003F4B  89D0              mov eax,edx
00003F4D  C1E003            shl eax,0x3
00003F50  29D0              sub eax,edx
00003F52  C1E002            shl eax,0x2
00003F55  01D0              add eax,edx
00003F57  C1E003            shl eax,0x3
00003F5A  0FB7807E6C0000    movzx eax,word [eax+0x6c7e]
00003F61  83C01F            add eax,byte +0x1f
00003F64  8981946C0000      mov [ecx+0x6c94],eax
00003F6A  83EC08            sub esp,byte +0x8
00003F6D  8B55F0            mov edx,[ebp-0x10]
00003F70  89D0              mov eax,edx
00003F72  C1E003            shl eax,0x3
00003F75  29D0              sub eax,edx
00003F77  C1E002            shl eax,0x2
00003F7A  01D0              add eax,edx
00003F7C  C1E003            shl eax,0x3
00003F7F  FFB0946C0000      push dword [eax+0x6c94]
00003F85  6865440000        push dword 0x4465
00003F8A  E807D4FFFF        call 0x1396
00003F8F  83C410            add esp,byte +0x10
00003F92  83EC08            sub esp,byte +0x8
00003F95  8B55F0            mov edx,[ebp-0x10]
00003F98  89D0              mov eax,edx
00003F9A  C1E003            shl eax,0x3
00003F9D  29D0              sub eax,edx
00003F9F  C1E002            shl eax,0x2
00003FA2  01D0              add eax,edx
00003FA4  C1E003            shl eax,0x3
00003FA7  05846C0000        add eax,0x6c84
00003FAC  50                push eax
00003FAD  6A00              push byte +0x0
00003FAF  E80CF7FFFF        call 0x36c0
00003FB4  83C410            add esp,byte +0x10
00003FB7  C745E001000000    mov dword [ebp-0x20],0x1
00003FBE  8B45E0            mov eax,[ebp-0x20]
00003FC1  C9                leave
00003FC2  C3                ret
00003FC3  55                push ebp
00003FC4  89E5              mov ebp,esp
00003FC6  83EC38            sub esp,byte +0x38
00003FC9  83EC0C            sub esp,byte +0xc
00003FCC  8D45C8            lea eax,[ebp-0x38]
00003FCF  50                push eax
00003FD0  E838FBFFFF        call 0x3b0d
00003FD5  83C410            add esp,byte +0x10
00003FD8  C745C8B0C30000    mov dword [ebp-0x38],0xc3b0
00003FDF  C745F401000000    mov dword [ebp-0xc],0x1
00003FE6  837DF409          cmp dword [ebp-0xc],byte +0x9
00003FEA  7E02              jng 0x3fee
00003FEC  EB27              jmp short 0x4015
00003FEE  8B45F4            mov eax,[ebp-0xc]
00003FF1  8945D8            mov [ebp-0x28],eax
00003FF4  83EC08            sub esp,byte +0x8
00003FF7  8D45C8            lea eax,[ebp-0x38]
00003FFA  50                push eax
00003FFB  6A00              push byte +0x0
00003FFD  E8BEF6FFFF        call 0x36c0
00004002  83C410            add esp,byte +0x10
00004005  8D45C8            lea eax,[ebp-0x38]
00004008  810000020000      add dword [eax],0x200
0000400E  8D45F4            lea eax,[ebp-0xc]
00004011  FF00              inc dword [eax]
00004013  EBD1              jmp short 0x3fe6
00004015  83EC0C            sub esp,byte +0xc
00004018  8D45C8            lea eax,[ebp-0x38]
0000401B  50                push eax
0000401C  E8ECFAFFFF        call 0x3b0d
00004021  83C410            add esp,byte +0x10
00004024  C745C8B0A70000    mov dword [ebp-0x38],0xa7b0
0000402B  C745F401000000    mov dword [ebp-0xc],0x1
00004032  837DF40E          cmp dword [ebp-0xc],byte +0xe
00004036  7E02              jng 0x403a
00004038  EB2A              jmp short 0x4064
0000403A  8B45F4            mov eax,[ebp-0xc]
0000403D  83C012            add eax,byte +0x12
00004040  8945D8            mov [ebp-0x28],eax
00004043  83EC08            sub esp,byte +0x8
00004046  8D45C8            lea eax,[ebp-0x38]
00004049  50                push eax
0000404A  6A00              push byte +0x0
0000404C  E86FF6FFFF        call 0x36c0
00004051  83C410            add esp,byte +0x10
00004054  8D45C8            lea eax,[ebp-0x38]
00004057  810000020000      add dword [eax],0x200
0000405D  8D45F4            lea eax,[ebp-0xc]
00004060  FF00              inc dword [eax]
00004062  EBCE              jmp short 0x4032
00004064  C9                leave
00004065  C3                ret
00004066  0000              add [eax],al
00004068  0000              add [eax],al
0000406A  0000              add [eax],al
0000406C  0000              add [eax],al
0000406E  0000              add [eax],al
00004070  0000              add [eax],al
00004072  0000              add [eax],al
00004074  0000              add [eax],al
00004076  0000              add [eax],al
00004078  0000              add [eax],al
0000407A  0000              add [eax],al
0000407C  0000              add [eax],al
0000407E  0000              add [eax],al
00004080  7475              jz 0x40f7
00004082  726E              jc 0x40f2
00004084  20696E            and [ecx+0x6e],ch
00004087  746F              jz 0x40f8
00004089  207365            and [ebx+0x65],dh
0000408C  7475              jz 0x4103
0000408E  705F              jo 0x40ef
00004090  667321            o16 jnc 0x40b4
00004093  0A00              or al,[eax]
00004095  7365              jnc 0x40fc
00004097  7475              jz 0x410e
00004099  7020              jo 0x40bb
0000409B  667320            o16 jnc 0x40be
0000409E  7375              jnc 0x4115
000040A0  636365            arpl [ebx+0x65],sp
000040A3  6564210A          and [fs:edx],ecx
000040A7  006C6F61          add [edi+ebp*2+0x61],ch
000040AB  64206673          and [fs:esi+0x73],ah
000040AF  207375            and [ebx+0x75],dh
000040B2  636365            arpl [ebx+0x65],sp
000040B5  6564210A          and [fs:edx],ecx
000040B9  007072            add [eax+0x72],dh
000040BC  6F                outsd
000040BD  636573            arpl [ebp+0x73],sp
000040C0  7333              jnc 0x40f5
000040C2  0A00              or al,[eax]
000040C4  7072              jo 0x4138
000040C6  6F                outsd
000040C7  636573            arpl [ebp+0x73],sp
000040CA  7334              jnc 0x4100
000040CC  0A00              or al,[eax]
000040CE  7072              jo 0x4142
000040D0  6F                outsd
000040D1  636573            arpl [ebp+0x73],sp
000040D4  7331              jnc 0x4107
000040D6  0A00              or al,[eax]
000040D8  7072              jo 0x414c
000040DA  6F                outsd
000040DB  636573            arpl [ebp+0x73],sp
000040DE  7330              jnc 0x4110
000040E0  0A00              or al,[eax]
000040E2  2573203A0A        and eax,0xa3a2073
000040E7  006569            add [ebp+0x69],ah
000040EA  7020              jo 0x410c
000040EC  3D2025640A        cmp eax,0xa642520
000040F1  006373            add [ebx+0x73],ah
000040F4  2020              and [eax],ah
000040F6  3D2025640A        cmp eax,0xa642520
000040FB  006566            add [ebp+0x66],ah
000040FE  6C                insb
000040FF  61                popa
00004100  677320            a16 jnc 0x4123
00004103  203D2025640A      and [0xa642520],bh
00004109  006572            add [ebp+0x72],ah
0000410C  725F              jc 0x416d
0000410E  636F64            arpl [edi+0x64],bp
00004111  65203D2025640A    and [gs:0xa642520],bh
00004118  00416E            add [ecx+0x6e],al
0000411B  20756E            and [ebp+0x6e],dh
0000411E  6B6E6F77          imul ebp,[esi+0x6f],byte +0x77
00004122  6E                outsb
00004123  206578            and [ebp+0x78],ah
00004126  636574            arpl [ebp+0x74],sp
00004129  696F6E210A0049    imul ebp,[edi+0x6e],dword 0x49000a21
00004130  52                push edx
00004131  51                push ecx
00004132  5F                pop edi
00004133  4E                dec esi
00004134  4F                dec edi
00004135  3A20              cmp ah,[eax]
00004137  25640A0000        and eax,0xa64
0000413C  0000              add [eax],al
0000413E  0000              add [eax],al
00004140  7472              jz 0x41b4
00004142  7969              jns 0x41ad
00004144  6E                outsb
00004145  6720746F          and [si+0x6f],dh
00004149  206672            and [esi+0x72],ah
0000414C  6565206E6F        and [gs:esi+0x6f],ch
00004151  6E                outsb
00004152  657869            gs js 0x41be
00004155  7374              jnc 0x41cb
00004157  656E              gs outsb
00004159  7420              jz 0x417b
0000415B  7061              jo 0x41be
0000415D  67652100          and [gs:bx+si],eax
00004161  7472              jz 0x41d5
00004163  7969              jns 0x41ce
00004165  6E                outsb
00004166  6720746F          and [si+0x6f],dh
0000416A  206672            and [esi+0x72],ah
0000416D  6565206672        and [gs:esi+0x72],ah
00004172  6565207061        and [gs:eax+0x61],dh
00004177  67652100          and [gs:bx+si],eax
0000417B  0000              add [eax],al
0000417D  0000              add [eax],al
0000417F  006672            add [esi+0x72],ah
00004182  65655F            gs pop edi
00004185  7061              jo 0x41e8
00004187  67655F            gs a16 pop edi
0000418A  7461              jz 0x41ed
0000418C  626C6573          bound ebp,[ebp+0x73]
00004190  206361            and [ebx+0x61],ah
00004193  6C                insb
00004194  6C                insb
00004195  6564207769        and [fs:edi+0x69],dh
0000419A  7468              jz 0x4204
0000419C  207772            and [edi+0x72],dh
0000419F  6F                outsd
000041A0  6E                outsb
000041A1  6720616C          and [bx+di+0x6c],ah
000041A5  69676E6D656E74    imul esp,[edi+0x6e],dword 0x746e656d
000041AC  2100              and [eax],eax
000041AE  0000              add [eax],al
000041B0  0000              add [eax],al
000041B2  0000              add [eax],al
000041B4  0000              add [eax],al
000041B6  0000              add [eax],al
000041B8  0000              add [eax],al
000041BA  0000              add [eax],al
000041BC  0000              add [eax],al
000041BE  0000              add [eax],al
000041C0  636F70            arpl [edi+0x70],bp
000041C3  795F              jns 0x4224
000041C5  7061              jo 0x4228
000041C7  67655F            gs a16 pop edi
000041CA  7461              jz 0x422d
000041CC  626C6573          bound ebp,[ebp+0x73]
000041D0  206361            and [ebx+0x61],ah
000041D3  6C                insb
000041D4  6C                insb
000041D5  6564207769        and [fs:edi+0x69],dh
000041DA  7468              jz 0x4244
000041DC  207772            and [edi+0x72],dh
000041DF  6F                outsd
000041E0  6E                outsb
000041E1  6720616C          and [bx+di+0x6c],ah
000041E5  69676E6D656E74    imul esp,[edi+0x6e],dword 0x746e656d
000041EC  0A00              or al,[eax]
000041EE  0000              add [eax],al
000041F0  0000              add [eax],al
000041F2  0000              add [eax],al
000041F4  0000              add [eax],al
000041F6  0000              add [eax],al
000041F8  0000              add [eax],al
000041FA  0000              add [eax],al
000041FC  0000              add [eax],al
000041FE  0000              add [eax],al
00004200  636F70            arpl [edi+0x70],bp
00004203  795F              jns 0x4264
00004205  7061              jo 0x4268
00004207  67655F            gs a16 pop edi
0000420A  7461              jz 0x426d
0000420C  626C6573          bound ebp,[ebp+0x73]
00004210  3A20              cmp ah,[eax]
00004212  61                popa
00004213  6C                insb
00004214  7265              jc 0x427b
00004216  61                popa
00004217  647920            fs jns 0x423a
0000421A  657869            gs js 0x4286
0000421D  7374              jnc 0x4293
0000421F  210A              and [edx],ecx
00004221  0000              add [eax],al
00004223  0000              add [eax],al
00004225  0000              add [eax],al
00004227  0000              add [eax],al
00004229  0000              add [eax],al
0000422B  0000              add [eax],al
0000422D  0000              add [eax],al
0000422F  0000              add [eax],al
00004231  0000              add [eax],al
00004233  0000              add [eax],al
00004235  0000              add [eax],al
00004237  0000              add [eax],al
00004239  0000              add [eax],al
0000423B  0000              add [eax],al
0000423D  0000              add [eax],al
0000423F  00747279          add [edx+esi*2+0x79],dh
00004243  696E6720746F20    imul ebp,[esi+0x67],dword 0x206f7420
0000424A  7075              jo 0x42c1
0000424C  7420              jz 0x426e
0000424E  6E                outsb
0000424F  6F                outsd
00004250  6E                outsb
00004251  657869            gs js 0x42bd
00004254  7374              jnc 0x42ca
00004256  656E              gs outsb
00004258  7420              jz 0x427a
0000425A  7061              jo 0x42bd
0000425C  67652100          and [gs:bx+si],eax
00004260  0E                push cs
00004261  27                daa
00004262  0000              add [eax],al
00004264  1B27              sbb esp,[edi]
00004266  0000              add [eax],al
00004268  2827              sub [edi],ah
0000426A  0000              add [eax],al
0000426C  3227              xor ah,[edi]
0000426E  0000              add [eax],al
00004270  3C27              cmp al,0x27
00004272  0000              add [eax],al
00004274  46                inc esi
00004275  27                daa
00004276  0000              add [eax],al
00004278  AB                stosd
00004279  27                daa
0000427A  0000              add [eax],al
0000427C  AB                stosd
0000427D  27                daa
0000427E  0000              add [eax],al
00004280  AB                stosd
00004281  27                daa
00004282  0000              add [eax],al
00004284  AB                stosd
00004285  27                daa
00004286  0000              add [eax],al
00004288  AB                stosd
00004289  27                daa
0000428A  0000              add [eax],al
0000428C  AB                stosd
0000428D  27                daa
0000428E  0000              add [eax],al
00004290  AB                stosd
00004291  27                daa
00004292  0000              add [eax],al
00004294  AB                stosd
00004295  27                daa
00004296  0000              add [eax],al
00004298  AB                stosd
00004299  27                daa
0000429A  0000              add [eax],al
0000429C  AB                stosd
0000429D  27                daa
0000429E  0000              add [eax],al
000042A0  AB                stosd
000042A1  27                daa
000042A2  0000              add [eax],al
000042A4  AB                stosd
000042A5  27                daa
000042A6  0000              add [eax],al
000042A8  AB                stosd
000042A9  27                daa
000042AA  0000              add [eax],al
000042AC  AB                stosd
000042AD  27                daa
000042AE  0000              add [eax],al
000042B0  AB                stosd
000042B1  27                daa
000042B2  0000              add [eax],al
000042B4  AB                stosd
000042B5  27                daa
000042B6  0000              add [eax],al
000042B8  AB                stosd
000042B9  27                daa
000042BA  0000              add [eax],al
000042BC  AB                stosd
000042BD  27                daa
000042BE  0000              add [eax],al
000042C0  AB                stosd
000042C1  27                daa
000042C2  0000              add [eax],al
000042C4  AB                stosd
000042C5  27                daa
000042C6  0000              add [eax],al
000042C8  AB                stosd
000042C9  27                daa
000042CA  0000              add [eax],al
000042CC  AB                stosd
000042CD  27                daa
000042CE  0000              add [eax],al
000042D0  50                push eax
000042D1  27                daa
000042D2  0000              add [eax],al
000042D4  6F                outsd
000042D5  27                daa
000042D6  0000              add [eax],al
000042D8  AB                stosd
000042D9  27                daa
000042DA  0000              add [eax],al
000042DC  AB                stosd
000042DD  27                daa
000042DE  0000              add [eax],al
000042E0  AB                stosd
000042E1  27                daa
000042E2  0000              add [eax],al
000042E4  AB                stosd
000042E5  27                daa
000042E6  0000              add [eax],al
000042E8  AB                stosd
000042E9  27                daa
000042EA  0000              add [eax],al
000042EC  AB                stosd
000042ED  27                daa
000042EE  0000              add [eax],al
000042F0  AB                stosd
000042F1  27                daa
000042F2  0000              add [eax],al
000042F4  AB                stosd
000042F5  27                daa
000042F6  0000              add [eax],al
000042F8  AB                stosd
000042F9  27                daa
000042FA  0000              add [eax],al
000042FC  AB                stosd
000042FD  27                daa
000042FE  0000              add [eax],al
00004300  AB                stosd
00004301  27                daa
00004302  0000              add [eax],al
00004304  AB                stosd
00004305  27                daa
00004306  0000              add [eax],al
00004308  AB                stosd
00004309  27                daa
0000430A  0000              add [eax],al
0000430C  AB                stosd
0000430D  27                daa
0000430E  0000              add [eax],al
00004310  AB                stosd
00004311  27                daa
00004312  0000              add [eax],al
00004314  AB                stosd
00004315  27                daa
00004316  0000              add [eax],al
00004318  8E27              mov fs,[edi]
0000431A  0000              add [eax],al
0000431C  0000              add [eax],al
0000431E  0000              add [eax],al
00004320  55                push ebp
00004321  6E                outsb
00004322  61                popa
00004323  626C6520          bound ebp,[ebp+0x20]
00004327  746F              jz 0x4398
00004329  207365            and [ebx+0x65],dh
0000432C  6E                outsb
0000432D  64206279          and [fs:edx+0x79],ah
00004331  7465              jz 0x4398
00004333  20746F20          and [edi+ebp*2+0x20],dh
00004337  46                inc esi
00004338  44                inc esp
00004339  43                inc ebx
0000433A  0A00              or al,[eax]
0000433C  47                inc edi
0000433D  657420            gs jz 0x4360
00004340  7374              jnc 0x43b6
00004342  61                popa
00004343  7475              jz 0x43ba
00004345  7320              jnc 0x4367
00004347  7469              jz 0x43b2
00004349  6D                insd
0000434A  657320            gs jnc 0x436d
0000434D  6F                outsd
0000434E  7574              jnz 0x43c4
00004350  0A00              or al,[eax]
00004352  25640A0072        and eax,0x72000a64
00004357  7720              ja 0x4379
00004359  6661              popaw
0000435B  696C656421004472  imul ebp,[ebp+0x64],dword 0x72440021
00004363  69766520256420    imul esi,[esi+0x65],dword 0x20642520
0000436A  69732077726974    imul esi,[ebx+0x20],dword 0x74697277
00004371  65207072          and [gs:eax+0x72],dh
00004375  6F                outsd
00004376  7465              jz 0x43dd
00004378  63746564          arpl [ebp+0x64],si
0000437C  0A00              or al,[eax]
0000437E  7365              jnc 0x43e5
00004380  656B2066          imul esp,[gs:eax],byte +0x66
00004384  61                popa
00004385  696C656421005265  imul ebp,[ebp+0x64],dword 0x65520021
0000438D  7365              jnc 0x43f4
0000438F  742D              jz 0x43be
00004391  666C              o16 insb
00004393  6F                outsd
00004394  7070              jo 0x4406
00004396  7920              jns 0x43b8
00004398  63616C            arpl [ecx+0x6c],sp
0000439B  6C                insb
0000439C  65640A00          or al,[fs:eax]
000043A0  66642E633A        o16 arpl [cs:edx],di
000043A5  6F                outsd
000043A6  7665              jna 0x440d
000043A8  7266              jc 0x4410
000043AA  6C                insb
000043AB  6F                outsd
000043AC  7720              ja 0x43ce
000043AE  666C              o16 insb
000043B0  6F                outsd
000043B1  7070              jo 0x4423
000043B3  795F              jns 0x4414
000043B5  7479              jz 0x4430
000043B7  7065              jo 0x441e
000043B9  2E7369            cs jnc 0x4425
000043BC  7A65              jpe 0x4423
000043BE  2100              and [eax],eax
000043C0  646F              fs outsd
000043C2  5F                pop edi
000043C3  66645F            fs pop di
000043C6  7265              jc 0x442d
000043C8  7175              jno 0x443f
000043CA  657374            gs jnc 0x4441
000043CD  3A20              cmp ah,[eax]
000043CF  756E              jnz 0x443f
000043D1  6B6E6F77          imul ebp,[esi+0x6f],byte +0x77
000043D5  6E                outsb
000043D6  20636F            and [ebx+0x6f],ah
000043D9  6D                insd
000043DA  6D                insd
000043DB  61                popa
000043DC  6E                outsb
000043DD  640000            add [fs:eax],al
000043E0  6C                insb
000043E1  6C                insb
000043E2  5F                pop edi
000043E3  7277              jc 0x445c
000043E5  5F                pop edi
000043E6  626C6F63          bound ebp,[edi+ebp*2+0x63]
000043EA  6B2E63            imul ebp,[esi],byte +0x63
000043ED  3A20              cmp ah,[eax]
000043EF  627566            bound esi,[ebp+0x66]
000043F2  66657220          gs o16 jc 0x4416
000043F6  6E                outsb
000043F7  6F                outsd
000043F8  7420              jz 0x441a
000043FA  6C                insb
000043FB  6F                outsd
000043FC  636B65            arpl [ebx+0x65],bp
000043FF  640A0D00000000    or cl,[fs:0x0]
00004406  0000              add [eax],al
00004408  0000              add [eax],al
0000440A  0000              add [eax],al
0000440C  0000              add [eax],al
0000440E  0000              add [eax],al
00004410  0000              add [eax],al
00004412  0000              add [eax],al
00004414  0000              add [eax],al
00004416  0000              add [eax],al
00004418  0000              add [eax],al
0000441A  0000              add [eax],al
0000441C  0000              add [eax],al
0000441E  0000              add [eax],al
00004420  42                inc edx
00004421  61                popa
00004422  6420626C          and [fs:edx+0x6c],ah
00004426  6F                outsd
00004427  636B20            arpl [ebx+0x20],bp
0000442A  64657620          gs jna 0x444e
0000442E  636F6D            arpl [edi+0x6d],bp
00004431  6D                insd
00004432  61                popa
00004433  6E                outsb
00004434  642C6D            fs sub al,0x6d
00004437  7573              jnz 0x44ac
00004439  7420              jz 0x445b
0000443B  626520            bound esp,[ebp+0x20]
0000443E  52                push edx
0000443F  2F                das
00004440  57                push edi
00004441  2100              and [eax],eax
00004443  20492F            and [ecx+0x2f],cl
00004446  4F                dec edi
00004447  206572            and [ebp+0x72],ah
0000444A  726F              jc 0x44bb
0000444C  720A              jc 0x4458
0000444E  00646576          add [ebp+0x76],ah
00004452  20666C            and [esi+0x6c],ah
00004455  6F                outsd
00004456  7070              jo 0x44c8
00004458  7920              jns 0x447a
0000445A  626C6F63          bound ebp,[edi+ebp*2+0x63]
0000445E  6B2025            imul esp,[eax],byte +0x25
00004461  640A0D0025640A    or cl,[fs:0xa642500]
00004468  0000              add [eax],al
0000446A  0000              add [eax],al
0000446C  0000              add [eax],al
0000446E  0000              add [eax],al
00004470  00FF              add bh,bh
00004472  FF00              inc dword [eax]
00004474  0000              add [eax],al
00004476  98                cwde
00004477  CF                iret
00004478  00FF              add bh,bh
0000447A  FF00              inc dword [eax]
0000447C  0000              add [eax],al
0000447E  92                xchg eax,edx
0000447F  CF                iret
00004480  00FF              add bh,bh
00004482  FF00              inc dword [eax]
00004484  800BF2            or byte [ebx],0xf2
00004487  0000              add [eax],al
00004489  0000              add [eax],al
0000448B  0000              add [eax],al
0000448D  0000              add [eax],al
0000448F  0000              add [eax],al
00004491  0000              add [eax],al
00004493  0000              add [eax],al
00004495  0000              add [eax],al
00004497  0000              add [eax],al
00004499  0000              add [eax],al
0000449B  0000              add [eax],al
0000449D  0000              add [eax],al
0000449F  0000              add [eax],al
000044A1  0000              add [eax],al
000044A3  0000              add [eax],al
000044A5  0000              add [eax],al
000044A7  0000              add [eax],al
000044A9  0000              add [eax],al
000044AB  0000              add [eax],al
000044AD  0000              add [eax],al
000044AF  0000              add [eax],al
000044B1  0000              add [eax],al
000044B3  0000              add [eax],al
000044B5  0000              add [eax],al
000044B7  0000              add [eax],al
000044B9  0000              add [eax],al
000044BB  0000              add [eax],al
000044BD  0000              add [eax],al
000044BF  0000              add [eax],al
000044C1  0000              add [eax],al
000044C3  0000              add [eax],al
000044C5  0000              add [eax],al
000044C7  0000              add [eax],al
000044C9  0000              add [eax],al
000044CB  0000              add [eax],al
000044CD  0000              add [eax],al
000044CF  0000              add [eax],al
000044D1  0000              add [eax],al
000044D3  0000              add [eax],al
000044D5  0000              add [eax],al
000044D7  0000              add [eax],al
000044D9  0000              add [eax],al
000044DB  0000              add [eax],al
000044DD  0000              add [eax],al
000044DF  0000              add [eax],al
000044E1  0000              add [eax],al
000044E3  0000              add [eax],al
000044E5  0000              add [eax],al
000044E7  0000              add [eax],al
000044E9  0000              add [eax],al
000044EB  0000              add [eax],al
000044ED  0000              add [eax],al
000044EF  0000              add [eax],al
000044F1  0000              add [eax],al
000044F3  0000              add [eax],al
000044F5  0000              add [eax],al
000044F7  0000              add [eax],al
000044F9  0000              add [eax],al
000044FB  0000              add [eax],al
000044FD  0000              add [eax],al
000044FF  0000              add [eax],al
00004501  0000              add [eax],al
00004503  0000              add [eax],al
00004505  0000              add [eax],al
00004507  0000              add [eax],al
00004509  0000              add [eax],al
0000450B  0000              add [eax],al
0000450D  0000              add [eax],al
0000450F  0000              add [eax],al
00004511  0000              add [eax],al
00004513  0000              add [eax],al
00004515  0000              add [eax],al
00004517  0000              add [eax],al
00004519  0000              add [eax],al
0000451B  0000              add [eax],al
0000451D  0000              add [eax],al
0000451F  0000              add [eax],al
00004521  0000              add [eax],al
00004523  0000              add [eax],al
00004525  0000              add [eax],al
00004527  0000              add [eax],al
00004529  0000              add [eax],al
0000452B  0000              add [eax],al
0000452D  0000              add [eax],al
0000452F  0000              add [eax],al
00004531  0000              add [eax],al
00004533  0000              add [eax],al
00004535  0000              add [eax],al
00004537  0000              add [eax],al
00004539  0000              add [eax],al
0000453B  0000              add [eax],al
0000453D  0000              add [eax],al
0000453F  0000              add [eax],al
00004541  0000              add [eax],al
00004543  0000              add [eax],al
00004545  0000              add [eax],al
00004547  0000              add [eax],al
00004549  0000              add [eax],al
0000454B  0000              add [eax],al
0000454D  0000              add [eax],al
0000454F  0000              add [eax],al
00004551  0000              add [eax],al
00004553  0000              add [eax],al
00004555  0000              add [eax],al
00004557  0000              add [eax],al
00004559  0000              add [eax],al
0000455B  0000              add [eax],al
0000455D  0000              add [eax],al
0000455F  0000              add [eax],al
00004561  0000              add [eax],al
00004563  0000              add [eax],al
00004565  0000              add [eax],al
00004567  0000              add [eax],al
00004569  0000              add [eax],al
0000456B  0000              add [eax],al
0000456D  0000              add [eax],al
0000456F  0000              add [eax],al
00004571  0000              add [eax],al
00004573  0000              add [eax],al
00004575  0000              add [eax],al
00004577  0000              add [eax],al
00004579  0000              add [eax],al
0000457B  0000              add [eax],al
0000457D  0000              add [eax],al
0000457F  0000              add [eax],al
00004581  0000              add [eax],al
00004583  0000              add [eax],al
00004585  0000              add [eax],al
00004587  0000              add [eax],al
00004589  0000              add [eax],al
0000458B  0000              add [eax],al
0000458D  0000              add [eax],al
0000458F  0000              add [eax],al
00004591  0000              add [eax],al
00004593  0000              add [eax],al
00004595  0000              add [eax],al
00004597  0000              add [eax],al
00004599  0000              add [eax],al
0000459B  0000              add [eax],al
0000459D  0000              add [eax],al
0000459F  0000              add [eax],al
000045A1  0000              add [eax],al
000045A3  0000              add [eax],al
000045A5  0000              add [eax],al
000045A7  0000              add [eax],al
000045A9  0000              add [eax],al
000045AB  0000              add [eax],al
000045AD  0000              add [eax],al
000045AF  0000              add [eax],al
000045B1  0000              add [eax],al
000045B3  0000              add [eax],al
000045B5  0000              add [eax],al
000045B7  0000              add [eax],al
000045B9  0000              add [eax],al
000045BB  0000              add [eax],al
000045BD  0000              add [eax],al
000045BF  0000              add [eax],al
000045C1  0000              add [eax],al
000045C3  0000              add [eax],al
000045C5  0000              add [eax],al
000045C7  0000              add [eax],al
000045C9  0000              add [eax],al
000045CB  0000              add [eax],al
000045CD  0000              add [eax],al
000045CF  0000              add [eax],al
000045D1  0000              add [eax],al
000045D3  0000              add [eax],al
000045D5  0000              add [eax],al
000045D7  0000              add [eax],al
000045D9  0000              add [eax],al
000045DB  0000              add [eax],al
000045DD  0000              add [eax],al
000045DF  0000              add [eax],al
000045E1  0000              add [eax],al
000045E3  0000              add [eax],al
000045E5  0000              add [eax],al
000045E7  0000              add [eax],al
000045E9  0000              add [eax],al
000045EB  0000              add [eax],al
000045ED  0000              add [eax],al
000045EF  0000              add [eax],al
000045F1  0000              add [eax],al
000045F3  0000              add [eax],al
000045F5  0000              add [eax],al
000045F7  0000              add [eax],al
000045F9  0000              add [eax],al
000045FB  0000              add [eax],al
000045FD  0000              add [eax],al
000045FF  0000              add [eax],al
00004601  0000              add [eax],al
00004603  0000              add [eax],al
00004605  0000              add [eax],al
00004607  0000              add [eax],al
00004609  0000              add [eax],al
0000460B  0000              add [eax],al
0000460D  0000              add [eax],al
0000460F  0000              add [eax],al
00004611  0000              add [eax],al
00004613  0000              add [eax],al
00004615  0000              add [eax],al
00004617  0000              add [eax],al
00004619  0000              add [eax],al
0000461B  0000              add [eax],al
0000461D  0000              add [eax],al
0000461F  0000              add [eax],al
00004621  0000              add [eax],al
00004623  0000              add [eax],al
00004625  0000              add [eax],al
00004627  0000              add [eax],al
00004629  0000              add [eax],al
0000462B  0000              add [eax],al
0000462D  0000              add [eax],al
0000462F  0000              add [eax],al
00004631  0000              add [eax],al
00004633  0000              add [eax],al
00004635  0000              add [eax],al
00004637  0000              add [eax],al
00004639  0000              add [eax],al
0000463B  0000              add [eax],al
0000463D  0000              add [eax],al
0000463F  0000              add [eax],al
00004641  0000              add [eax],al
00004643  0000              add [eax],al
00004645  0000              add [eax],al
00004647  0000              add [eax],al
00004649  0000              add [eax],al
0000464B  0000              add [eax],al
0000464D  0000              add [eax],al
0000464F  0000              add [eax],al
00004651  0000              add [eax],al
00004653  0000              add [eax],al
00004655  0000              add [eax],al
00004657  0000              add [eax],al
00004659  0000              add [eax],al
0000465B  0000              add [eax],al
0000465D  0000              add [eax],al
0000465F  0000              add [eax],al
00004661  0000              add [eax],al
00004663  0000              add [eax],al
00004665  0000              add [eax],al
00004667  0000              add [eax],al
00004669  0000              add [eax],al
0000466B  0000              add [eax],al
0000466D  0000              add [eax],al
0000466F  0000              add [eax],al
00004671  0000              add [eax],al
00004673  0000              add [eax],al
00004675  0000              add [eax],al
00004677  0000              add [eax],al
00004679  0000              add [eax],al
0000467B  0000              add [eax],al
0000467D  0000              add [eax],al
0000467F  0000              add [eax],al
00004681  0000              add [eax],al
00004683  0000              add [eax],al
00004685  0000              add [eax],al
00004687  0000              add [eax],al
00004689  0000              add [eax],al
0000468B  0000              add [eax],al
0000468D  0000              add [eax],al
0000468F  0000              add [eax],al
00004691  0000              add [eax],al
00004693  0000              add [eax],al
00004695  0000              add [eax],al
00004697  0000              add [eax],al
00004699  0000              add [eax],al
0000469B  0000              add [eax],al
0000469D  0000              add [eax],al
0000469F  0000              add [eax],al
000046A1  0000              add [eax],al
000046A3  0000              add [eax],al
000046A5  0000              add [eax],al
000046A7  0000              add [eax],al
000046A9  0000              add [eax],al
000046AB  0000              add [eax],al
000046AD  0000              add [eax],al
000046AF  0000              add [eax],al
000046B1  0000              add [eax],al
000046B3  0000              add [eax],al
000046B5  0000              add [eax],al
000046B7  0000              add [eax],al
000046B9  0000              add [eax],al
000046BB  0000              add [eax],al
000046BD  0000              add [eax],al
000046BF  0000              add [eax],al
000046C1  0000              add [eax],al
000046C3  0000              add [eax],al
000046C5  0000              add [eax],al
000046C7  0000              add [eax],al
000046C9  0000              add [eax],al
000046CB  0000              add [eax],al
000046CD  0000              add [eax],al
000046CF  0000              add [eax],al
000046D1  0000              add [eax],al
000046D3  0000              add [eax],al
000046D5  0000              add [eax],al
000046D7  0000              add [eax],al
000046D9  0000              add [eax],al
000046DB  0000              add [eax],al
000046DD  0000              add [eax],al
000046DF  0000              add [eax],al
000046E1  0000              add [eax],al
000046E3  0000              add [eax],al
000046E5  0000              add [eax],al
000046E7  0000              add [eax],al
000046E9  0000              add [eax],al
000046EB  0000              add [eax],al
000046ED  0000              add [eax],al
000046EF  0000              add [eax],al
000046F1  0000              add [eax],al
000046F3  0000              add [eax],al
000046F5  0000              add [eax],al
000046F7  0000              add [eax],al
000046F9  0000              add [eax],al
000046FB  0000              add [eax],al
000046FD  0000              add [eax],al
000046FF  0000              add [eax],al
00004701  0000              add [eax],al
00004703  0000              add [eax],al
00004705  0000              add [eax],al
00004707  0000              add [eax],al
00004709  0000              add [eax],al
0000470B  0000              add [eax],al
0000470D  0000              add [eax],al
0000470F  0000              add [eax],al
00004711  0000              add [eax],al
00004713  0000              add [eax],al
00004715  0000              add [eax],al
00004717  0000              add [eax],al
00004719  0000              add [eax],al
0000471B  0000              add [eax],al
0000471D  0000              add [eax],al
0000471F  0000              add [eax],al
00004721  0000              add [eax],al
00004723  0000              add [eax],al
00004725  0000              add [eax],al
00004727  0000              add [eax],al
00004729  0000              add [eax],al
0000472B  0000              add [eax],al
0000472D  0000              add [eax],al
0000472F  0000              add [eax],al
00004731  0000              add [eax],al
00004733  0000              add [eax],al
00004735  0000              add [eax],al
00004737  0000              add [eax],al
00004739  0000              add [eax],al
0000473B  0000              add [eax],al
0000473D  0000              add [eax],al
0000473F  0000              add [eax],al
00004741  0000              add [eax],al
00004743  0000              add [eax],al
00004745  0000              add [eax],al
00004747  0000              add [eax],al
00004749  0000              add [eax],al
0000474B  0000              add [eax],al
0000474D  0000              add [eax],al
0000474F  0000              add [eax],al
00004751  0000              add [eax],al
00004753  0000              add [eax],al
00004755  0000              add [eax],al
00004757  0000              add [eax],al
00004759  0000              add [eax],al
0000475B  0000              add [eax],al
0000475D  0000              add [eax],al
0000475F  0000              add [eax],al
00004761  0000              add [eax],al
00004763  0000              add [eax],al
00004765  0000              add [eax],al
00004767  0000              add [eax],al
00004769  0000              add [eax],al
0000476B  0000              add [eax],al
0000476D  0000              add [eax],al
0000476F  0000              add [eax],al
00004771  0000              add [eax],al
00004773  0000              add [eax],al
00004775  0000              add [eax],al
00004777  0000              add [eax],al
00004779  0000              add [eax],al
0000477B  0000              add [eax],al
0000477D  0000              add [eax],al
0000477F  0000              add [eax],al
00004781  0000              add [eax],al
00004783  0000              add [eax],al
00004785  0000              add [eax],al
00004787  0000              add [eax],al
00004789  0000              add [eax],al
0000478B  0000              add [eax],al
0000478D  0000              add [eax],al
0000478F  0000              add [eax],al
00004791  0000              add [eax],al
00004793  0000              add [eax],al
00004795  0000              add [eax],al
00004797  0000              add [eax],al
00004799  0000              add [eax],al
0000479B  0000              add [eax],al
0000479D  0000              add [eax],al
0000479F  0000              add [eax],al
000047A1  0000              add [eax],al
000047A3  0000              add [eax],al
000047A5  0000              add [eax],al
000047A7  0000              add [eax],al
000047A9  0000              add [eax],al
000047AB  0000              add [eax],al
000047AD  0000              add [eax],al
000047AF  0000              add [eax],al
000047B1  0000              add [eax],al
000047B3  0000              add [eax],al
000047B5  0000              add [eax],al
000047B7  0000              add [eax],al
000047B9  0000              add [eax],al
000047BB  0000              add [eax],al
000047BD  0000              add [eax],al
000047BF  0000              add [eax],al
000047C1  0000              add [eax],al
000047C3  0000              add [eax],al
000047C5  0000              add [eax],al
000047C7  0000              add [eax],al
000047C9  0000              add [eax],al
000047CB  0000              add [eax],al
000047CD  0000              add [eax],al
000047CF  0000              add [eax],al
000047D1  0000              add [eax],al
000047D3  0000              add [eax],al
000047D5  0000              add [eax],al
000047D7  0000              add [eax],al
000047D9  0000              add [eax],al
000047DB  0000              add [eax],al
000047DD  0000              add [eax],al
000047DF  0000              add [eax],al
000047E1  0000              add [eax],al
000047E3  0000              add [eax],al
000047E5  0000              add [eax],al
000047E7  0000              add [eax],al
000047E9  0000              add [eax],al
000047EB  0000              add [eax],al
000047ED  0000              add [eax],al
000047EF  0000              add [eax],al
000047F1  0000              add [eax],al
000047F3  0000              add [eax],al
000047F5  0000              add [eax],al
000047F7  0000              add [eax],al
000047F9  0000              add [eax],al
000047FB  0000              add [eax],al
000047FD  0000              add [eax],al
000047FF  0000              add [eax],al
00004801  0000              add [eax],al
00004803  0000              add [eax],al
00004805  0000              add [eax],al
00004807  0000              add [eax],al
00004809  0000              add [eax],al
0000480B  0000              add [eax],al
0000480D  0000              add [eax],al
0000480F  0000              add [eax],al
00004811  0000              add [eax],al
00004813  0000              add [eax],al
00004815  0000              add [eax],al
00004817  0000              add [eax],al
00004819  0000              add [eax],al
0000481B  0000              add [eax],al
0000481D  0000              add [eax],al
0000481F  0000              add [eax],al
00004821  0000              add [eax],al
00004823  0000              add [eax],al
00004825  0000              add [eax],al
00004827  0000              add [eax],al
00004829  0000              add [eax],al
0000482B  0000              add [eax],al
0000482D  0000              add [eax],al
0000482F  0000              add [eax],al
00004831  0000              add [eax],al
00004833  0000              add [eax],al
00004835  0000              add [eax],al
00004837  0000              add [eax],al
00004839  0000              add [eax],al
0000483B  0000              add [eax],al
0000483D  0000              add [eax],al
0000483F  0000              add [eax],al
00004841  0000              add [eax],al
00004843  0000              add [eax],al
00004845  0000              add [eax],al
00004847  0000              add [eax],al
00004849  0000              add [eax],al
0000484B  0000              add [eax],al
0000484D  0000              add [eax],al
0000484F  0000              add [eax],al
00004851  0000              add [eax],al
00004853  0000              add [eax],al
00004855  0000              add [eax],al
00004857  0000              add [eax],al
00004859  0000              add [eax],al
0000485B  0000              add [eax],al
0000485D  0000              add [eax],al
0000485F  0000              add [eax],al
00004861  0000              add [eax],al
00004863  0000              add [eax],al
00004865  0000              add [eax],al
00004867  0000              add [eax],al
00004869  0000              add [eax],al
0000486B  0000              add [eax],al
0000486D  0000              add [eax],al
0000486F  0000              add [eax],al
00004871  0000              add [eax],al
00004873  0000              add [eax],al
00004875  0000              add [eax],al
00004877  0000              add [eax],al
00004879  0000              add [eax],al
0000487B  0000              add [eax],al
0000487D  0000              add [eax],al
0000487F  0000              add [eax],al
00004881  0000              add [eax],al
00004883  0000              add [eax],al
00004885  0000              add [eax],al
00004887  0000              add [eax],al
00004889  0000              add [eax],al
0000488B  0000              add [eax],al
0000488D  0000              add [eax],al
0000488F  0000              add [eax],al
00004891  0000              add [eax],al
00004893  0000              add [eax],al
00004895  0000              add [eax],al
00004897  0000              add [eax],al
00004899  0000              add [eax],al
0000489B  0000              add [eax],al
0000489D  0000              add [eax],al
0000489F  0000              add [eax],al
000048A1  0000              add [eax],al
000048A3  0000              add [eax],al
000048A5  0000              add [eax],al
000048A7  0000              add [eax],al
000048A9  0000              add [eax],al
000048AB  0000              add [eax],al
000048AD  0000              add [eax],al
000048AF  0000              add [eax],al
000048B1  0000              add [eax],al
000048B3  0000              add [eax],al
000048B5  0000              add [eax],al
000048B7  0000              add [eax],al
000048B9  0000              add [eax],al
000048BB  0000              add [eax],al
000048BD  0000              add [eax],al
000048BF  0000              add [eax],al
000048C1  0000              add [eax],al
000048C3  0000              add [eax],al
000048C5  0000              add [eax],al
000048C7  0000              add [eax],al
000048C9  0000              add [eax],al
000048CB  0000              add [eax],al
000048CD  0000              add [eax],al
000048CF  0000              add [eax],al
000048D1  0000              add [eax],al
000048D3  0000              add [eax],al
000048D5  0000              add [eax],al
000048D7  0000              add [eax],al
000048D9  0000              add [eax],al
000048DB  0000              add [eax],al
000048DD  0000              add [eax],al
000048DF  0000              add [eax],al
000048E1  0000              add [eax],al
000048E3  0000              add [eax],al
000048E5  0000              add [eax],al
000048E7  0000              add [eax],al
000048E9  0000              add [eax],al
000048EB  0000              add [eax],al
000048ED  0000              add [eax],al
000048EF  0000              add [eax],al
000048F1  0000              add [eax],al
000048F3  0000              add [eax],al
000048F5  0000              add [eax],al
000048F7  0000              add [eax],al
000048F9  0000              add [eax],al
000048FB  0000              add [eax],al
000048FD  0000              add [eax],al
000048FF  0000              add [eax],al
00004901  0000              add [eax],al
00004903  0000              add [eax],al
00004905  0000              add [eax],al
00004907  0000              add [eax],al
00004909  0000              add [eax],al
0000490B  0000              add [eax],al
0000490D  0000              add [eax],al
0000490F  0000              add [eax],al
00004911  0000              add [eax],al
00004913  0000              add [eax],al
00004915  0000              add [eax],al
00004917  0000              add [eax],al
00004919  0000              add [eax],al
0000491B  0000              add [eax],al
0000491D  0000              add [eax],al
0000491F  0000              add [eax],al
00004921  0000              add [eax],al
00004923  0000              add [eax],al
00004925  0000              add [eax],al
00004927  0000              add [eax],al
00004929  0000              add [eax],al
0000492B  0000              add [eax],al
0000492D  0000              add [eax],al
0000492F  0000              add [eax],al
00004931  0000              add [eax],al
00004933  0000              add [eax],al
00004935  0000              add [eax],al
00004937  0000              add [eax],al
00004939  0000              add [eax],al
0000493B  0000              add [eax],al
0000493D  0000              add [eax],al
0000493F  0000              add [eax],al
00004941  0000              add [eax],al
00004943  0000              add [eax],al
00004945  0000              add [eax],al
00004947  0000              add [eax],al
00004949  0000              add [eax],al
0000494B  0000              add [eax],al
0000494D  0000              add [eax],al
0000494F  0000              add [eax],al
00004951  0000              add [eax],al
00004953  0000              add [eax],al
00004955  0000              add [eax],al
00004957  0000              add [eax],al
00004959  0000              add [eax],al
0000495B  0000              add [eax],al
0000495D  0000              add [eax],al
0000495F  0000              add [eax],al
00004961  0000              add [eax],al
00004963  0000              add [eax],al
00004965  0000              add [eax],al
00004967  0000              add [eax],al
00004969  0000              add [eax],al
0000496B  0000              add [eax],al
0000496D  0000              add [eax],al
0000496F  0000              add [eax],al
00004971  0000              add [eax],al
00004973  0000              add [eax],al
00004975  0000              add [eax],al
00004977  0000              add [eax],al
00004979  0000              add [eax],al
0000497B  0000              add [eax],al
0000497D  0000              add [eax],al
0000497F  0000              add [eax],al
00004981  0000              add [eax],al
00004983  0000              add [eax],al
00004985  0000              add [eax],al
00004987  0000              add [eax],al
00004989  0000              add [eax],al
0000498B  0000              add [eax],al
0000498D  0000              add [eax],al
0000498F  0000              add [eax],al
00004991  0000              add [eax],al
00004993  0000              add [eax],al
00004995  0000              add [eax],al
00004997  0000              add [eax],al
00004999  0000              add [eax],al
0000499B  0000              add [eax],al
0000499D  0000              add [eax],al
0000499F  0000              add [eax],al
000049A1  0000              add [eax],al
000049A3  0000              add [eax],al
000049A5  0000              add [eax],al
000049A7  0000              add [eax],al
000049A9  0000              add [eax],al
000049AB  0000              add [eax],al
000049AD  0000              add [eax],al
000049AF  0000              add [eax],al
000049B1  0000              add [eax],al
000049B3  0000              add [eax],al
000049B5  0000              add [eax],al
000049B7  0000              add [eax],al
000049B9  0000              add [eax],al
000049BB  0000              add [eax],al
000049BD  0000              add [eax],al
000049BF  0000              add [eax],al
000049C1  0000              add [eax],al
000049C3  0000              add [eax],al
000049C5  0000              add [eax],al
000049C7  0000              add [eax],al
000049C9  0000              add [eax],al
000049CB  0000              add [eax],al
000049CD  0000              add [eax],al
000049CF  0000              add [eax],al
000049D1  0000              add [eax],al
000049D3  0000              add [eax],al
000049D5  0000              add [eax],al
000049D7  0000              add [eax],al
000049D9  0000              add [eax],al
000049DB  0000              add [eax],al
000049DD  0000              add [eax],al
000049DF  0000              add [eax],al
000049E1  0000              add [eax],al
000049E3  0000              add [eax],al
000049E5  0000              add [eax],al
000049E7  0000              add [eax],al
000049E9  0000              add [eax],al
000049EB  0000              add [eax],al
000049ED  0000              add [eax],al
000049EF  0000              add [eax],al
000049F1  0000              add [eax],al
000049F3  0000              add [eax],al
000049F5  0000              add [eax],al
000049F7  0000              add [eax],al
000049F9  0000              add [eax],al
000049FB  0000              add [eax],al
000049FD  0000              add [eax],al
000049FF  0000              add [eax],al
00004A01  0000              add [eax],al
00004A03  0000              add [eax],al
00004A05  0000              add [eax],al
00004A07  0000              add [eax],al
00004A09  0000              add [eax],al
00004A0B  0000              add [eax],al
00004A0D  0000              add [eax],al
00004A0F  0000              add [eax],al
00004A11  0000              add [eax],al
00004A13  0000              add [eax],al
00004A15  0000              add [eax],al
00004A17  0000              add [eax],al
00004A19  0000              add [eax],al
00004A1B  0000              add [eax],al
00004A1D  0000              add [eax],al
00004A1F  0000              add [eax],al
00004A21  0000              add [eax],al
00004A23  0000              add [eax],al
00004A25  0000              add [eax],al
00004A27  0000              add [eax],al
00004A29  0000              add [eax],al
00004A2B  0000              add [eax],al
00004A2D  0000              add [eax],al
00004A2F  0000              add [eax],al
00004A31  0000              add [eax],al
00004A33  0000              add [eax],al
00004A35  0000              add [eax],al
00004A37  0000              add [eax],al
00004A39  0000              add [eax],al
00004A3B  0000              add [eax],al
00004A3D  0000              add [eax],al
00004A3F  0000              add [eax],al
00004A41  0000              add [eax],al
00004A43  0000              add [eax],al
00004A45  0000              add [eax],al
00004A47  0000              add [eax],al
00004A49  0000              add [eax],al
00004A4B  0000              add [eax],al
00004A4D  0000              add [eax],al
00004A4F  0000              add [eax],al
00004A51  0000              add [eax],al
00004A53  0000              add [eax],al
00004A55  0000              add [eax],al
00004A57  0000              add [eax],al
00004A59  0000              add [eax],al
00004A5B  0000              add [eax],al
00004A5D  0000              add [eax],al
00004A5F  0000              add [eax],al
00004A61  0000              add [eax],al
00004A63  0000              add [eax],al
00004A65  0000              add [eax],al
00004A67  0000              add [eax],al
00004A69  0000              add [eax],al
00004A6B  0000              add [eax],al
00004A6D  0000              add [eax],al
00004A6F  0000              add [eax],al
00004A71  0000              add [eax],al
00004A73  0000              add [eax],al
00004A75  0000              add [eax],al
00004A77  0000              add [eax],al
00004A79  0000              add [eax],al
00004A7B  0000              add [eax],al
00004A7D  0000              add [eax],al
00004A7F  0000              add [eax],al
00004A81  0000              add [eax],al
00004A83  0000              add [eax],al
00004A85  0000              add [eax],al
00004A87  0000              add [eax],al
00004A89  0000              add [eax],al
00004A8B  0000              add [eax],al
00004A8D  0000              add [eax],al
00004A8F  0000              add [eax],al
00004A91  0000              add [eax],al
00004A93  0000              add [eax],al
00004A95  0000              add [eax],al
00004A97  0000              add [eax],al
00004A99  0000              add [eax],al
00004A9B  0000              add [eax],al
00004A9D  0000              add [eax],al
00004A9F  0000              add [eax],al
00004AA1  0000              add [eax],al
00004AA3  0000              add [eax],al
00004AA5  0000              add [eax],al
00004AA7  0000              add [eax],al
00004AA9  0000              add [eax],al
00004AAB  0000              add [eax],al
00004AAD  0000              add [eax],al
00004AAF  0000              add [eax],al
00004AB1  0000              add [eax],al
00004AB3  0000              add [eax],al
00004AB5  0000              add [eax],al
00004AB7  0000              add [eax],al
00004AB9  0000              add [eax],al
00004ABB  0000              add [eax],al
00004ABD  0000              add [eax],al
00004ABF  0000              add [eax],al
00004AC1  0000              add [eax],al
00004AC3  0000              add [eax],al
00004AC5  0000              add [eax],al
00004AC7  0000              add [eax],al
00004AC9  0000              add [eax],al
00004ACB  0000              add [eax],al
00004ACD  0000              add [eax],al
00004ACF  0000              add [eax],al
00004AD1  0000              add [eax],al
00004AD3  0000              add [eax],al
00004AD5  0000              add [eax],al
00004AD7  0000              add [eax],al
00004AD9  0000              add [eax],al
00004ADB  0000              add [eax],al
00004ADD  0000              add [eax],al
00004ADF  0000              add [eax],al
00004AE1  0000              add [eax],al
00004AE3  0000              add [eax],al
00004AE5  0000              add [eax],al
00004AE7  0000              add [eax],al
00004AE9  0000              add [eax],al
00004AEB  0000              add [eax],al
00004AED  0000              add [eax],al
00004AEF  0000              add [eax],al
00004AF1  0000              add [eax],al
00004AF3  0000              add [eax],al
00004AF5  0000              add [eax],al
00004AF7  0000              add [eax],al
00004AF9  0000              add [eax],al
00004AFB  0000              add [eax],al
00004AFD  0000              add [eax],al
00004AFF  0000              add [eax],al
00004B01  0000              add [eax],al
00004B03  0000              add [eax],al
00004B05  0000              add [eax],al
00004B07  0000              add [eax],al
00004B09  0000              add [eax],al
00004B0B  0000              add [eax],al
00004B0D  0000              add [eax],al
00004B0F  0000              add [eax],al
00004B11  0000              add [eax],al
00004B13  0000              add [eax],al
00004B15  0000              add [eax],al
00004B17  0000              add [eax],al
00004B19  0000              add [eax],al
00004B1B  0000              add [eax],al
00004B1D  0000              add [eax],al
00004B1F  0000              add [eax],al
00004B21  0000              add [eax],al
00004B23  0000              add [eax],al
00004B25  0000              add [eax],al
00004B27  0000              add [eax],al
00004B29  0000              add [eax],al
00004B2B  0000              add [eax],al
00004B2D  0000              add [eax],al
00004B2F  0000              add [eax],al
00004B31  0000              add [eax],al
00004B33  0000              add [eax],al
00004B35  0000              add [eax],al
00004B37  0000              add [eax],al
00004B39  0000              add [eax],al
00004B3B  0000              add [eax],al
00004B3D  0000              add [eax],al
00004B3F  0000              add [eax],al
00004B41  0000              add [eax],al
00004B43  0000              add [eax],al
00004B45  0000              add [eax],al
00004B47  0000              add [eax],al
00004B49  0000              add [eax],al
00004B4B  0000              add [eax],al
00004B4D  0000              add [eax],al
00004B4F  0000              add [eax],al
00004B51  0000              add [eax],al
00004B53  0000              add [eax],al
00004B55  0000              add [eax],al
00004B57  0000              add [eax],al
00004B59  0000              add [eax],al
00004B5B  0000              add [eax],al
00004B5D  0000              add [eax],al
00004B5F  0000              add [eax],al
00004B61  0000              add [eax],al
00004B63  0000              add [eax],al
00004B65  0000              add [eax],al
00004B67  0000              add [eax],al
00004B69  0000              add [eax],al
00004B6B  0000              add [eax],al
00004B6D  0000              add [eax],al
00004B6F  0000              add [eax],al
00004B71  0000              add [eax],al
00004B73  0000              add [eax],al
00004B75  0000              add [eax],al
00004B77  0000              add [eax],al
00004B79  0000              add [eax],al
00004B7B  0000              add [eax],al
00004B7D  0000              add [eax],al
00004B7F  0000              add [eax],al
00004B81  0000              add [eax],al
00004B83  0000              add [eax],al
00004B85  0000              add [eax],al
00004B87  0000              add [eax],al
00004B89  0000              add [eax],al
00004B8B  0000              add [eax],al
00004B8D  0000              add [eax],al
00004B8F  0000              add [eax],al
00004B91  0000              add [eax],al
00004B93  0000              add [eax],al
00004B95  0000              add [eax],al
00004B97  0000              add [eax],al
00004B99  0000              add [eax],al
00004B9B  0000              add [eax],al
00004B9D  0000              add [eax],al
00004B9F  0000              add [eax],al
00004BA1  0000              add [eax],al
00004BA3  0000              add [eax],al
00004BA5  0000              add [eax],al
00004BA7  0000              add [eax],al
00004BA9  0000              add [eax],al
00004BAB  0000              add [eax],al
00004BAD  0000              add [eax],al
00004BAF  0000              add [eax],al
00004BB1  0000              add [eax],al
00004BB3  0000              add [eax],al
00004BB5  0000              add [eax],al
00004BB7  0000              add [eax],al
00004BB9  0000              add [eax],al
00004BBB  0000              add [eax],al
00004BBD  0000              add [eax],al
00004BBF  0000              add [eax],al
00004BC1  0000              add [eax],al
00004BC3  0000              add [eax],al
00004BC5  0000              add [eax],al
00004BC7  0000              add [eax],al
00004BC9  0000              add [eax],al
00004BCB  0000              add [eax],al
00004BCD  0000              add [eax],al
00004BCF  0000              add [eax],al
00004BD1  0000              add [eax],al
00004BD3  0000              add [eax],al
00004BD5  0000              add [eax],al
00004BD7  0000              add [eax],al
00004BD9  0000              add [eax],al
00004BDB  0000              add [eax],al
00004BDD  0000              add [eax],al
00004BDF  0000              add [eax],al
00004BE1  0000              add [eax],al
00004BE3  0000              add [eax],al
00004BE5  0000              add [eax],al
00004BE7  0000              add [eax],al
00004BE9  0000              add [eax],al
00004BEB  0000              add [eax],al
00004BED  0000              add [eax],al
00004BEF  0000              add [eax],al
00004BF1  0000              add [eax],al
00004BF3  0000              add [eax],al
00004BF5  0000              add [eax],al
00004BF7  0000              add [eax],al
00004BF9  0000              add [eax],al
00004BFB  0000              add [eax],al
00004BFD  0000              add [eax],al
00004BFF  0000              add [eax],al
00004C01  0000              add [eax],al
00004C03  0000              add [eax],al
00004C05  0000              add [eax],al
00004C07  0000              add [eax],al
00004C09  0000              add [eax],al
00004C0B  0000              add [eax],al
00004C0D  0000              add [eax],al
00004C0F  0000              add [eax],al
00004C11  0000              add [eax],al
00004C13  0000              add [eax],al
00004C15  0000              add [eax],al
00004C17  0000              add [eax],al
00004C19  0000              add [eax],al
00004C1B  0000              add [eax],al
00004C1D  0000              add [eax],al
00004C1F  0000              add [eax],al
00004C21  0000              add [eax],al
00004C23  0000              add [eax],al
00004C25  0000              add [eax],al
00004C27  0000              add [eax],al
00004C29  0000              add [eax],al
00004C2B  0000              add [eax],al
00004C2D  0000              add [eax],al
00004C2F  0000              add [eax],al
00004C31  0000              add [eax],al
00004C33  0000              add [eax],al
00004C35  0000              add [eax],al
00004C37  0000              add [eax],al
00004C39  0000              add [eax],al
00004C3B  0000              add [eax],al
00004C3D  0000              add [eax],al
00004C3F  0000              add [eax],al
00004C41  0000              add [eax],al
00004C43  0000              add [eax],al
00004C45  0000              add [eax],al
00004C47  0000              add [eax],al
00004C49  0000              add [eax],al
00004C4B  0000              add [eax],al
00004C4D  0000              add [eax],al
00004C4F  0000              add [eax],al
00004C51  0000              add [eax],al
00004C53  0000              add [eax],al
00004C55  0000              add [eax],al
00004C57  0000              add [eax],al
00004C59  0000              add [eax],al
00004C5B  0000              add [eax],al
00004C5D  0000              add [eax],al
00004C5F  0000              add [eax],al
00004C61  0000              add [eax],al
00004C63  0000              add [eax],al
00004C65  0000              add [eax],al
00004C67  0000              add [eax],al
00004C69  FF07              inc dword [edi]
00004C6B  6944000000000000  imul eax,[eax+eax+0x0],dword 0x0
00004C73  0000              add [eax],al
00004C75  0000              add [eax],al
00004C77  0000              add [eax],al
00004C79  0000              add [eax],al
00004C7B  0000              add [eax],al
00004C7D  0000              add [eax],al
00004C7F  0000              add [eax],al
00004C81  0000              add [eax],al
00004C83  0000              add [eax],al
00004C85  0000              add [eax],al
00004C87  0000              add [eax],al
00004C89  0000              add [eax],al
00004C8B  0000              add [eax],al
00004C8D  0000              add [eax],al
00004C8F  0000              add [eax],al
00004C91  0000              add [eax],al
00004C93  0000              add [eax],al
00004C95  0000              add [eax],al
00004C97  0000              add [eax],al
00004C99  0000              add [eax],al
00004C9B  0000              add [eax],al
00004C9D  0000              add [eax],al
00004C9F  0000              add [eax],al
00004CA1  0000              add [eax],al
00004CA3  0000              add [eax],al
00004CA5  0000              add [eax],al
00004CA7  0000              add [eax],al
00004CA9  0000              add [eax],al
00004CAB  0000              add [eax],al
00004CAD  0000              add [eax],al
00004CAF  0000              add [eax],al
00004CB1  0000              add [eax],al
00004CB3  0000              add [eax],al
00004CB5  0000              add [eax],al
00004CB7  0000              add [eax],al
00004CB9  0000              add [eax],al
00004CBB  0000              add [eax],al
00004CBD  0000              add [eax],al
00004CBF  0000              add [eax],al
00004CC1  0000              add [eax],al
00004CC3  0000              add [eax],al
00004CC5  0000              add [eax],al
00004CC7  0000              add [eax],al
00004CC9  0000              add [eax],al
00004CCB  0000              add [eax],al
00004CCD  0000              add [eax],al
00004CCF  0000              add [eax],al
00004CD1  0000              add [eax],al
00004CD3  0000              add [eax],al
00004CD5  0000              add [eax],al
00004CD7  0000              add [eax],al
00004CD9  0000              add [eax],al
00004CDB  0000              add [eax],al
00004CDD  0000              add [eax],al
00004CDF  0000              add [eax],al
00004CE1  0000              add [eax],al
00004CE3  0000              add [eax],al
00004CE5  0000              add [eax],al
00004CE7  0000              add [eax],al
00004CE9  0000              add [eax],al
00004CEB  0000              add [eax],al
00004CED  0000              add [eax],al
00004CEF  0000              add [eax],al
00004CF1  0000              add [eax],al
00004CF3  0000              add [eax],al
00004CF5  0000              add [eax],al
00004CF7  0000              add [eax],al
00004CF9  0000              add [eax],al
00004CFB  0000              add [eax],al
00004CFD  0000              add [eax],al
00004CFF  0000              add [eax],al
00004D01  0000              add [eax],al
00004D03  0000              add [eax],al
00004D05  0000              add [eax],al
00004D07  0000              add [eax],al
00004D09  0000              add [eax],al
00004D0B  0000              add [eax],al
00004D0D  0000              add [eax],al
00004D0F  0000              add [eax],al
00004D11  0000              add [eax],al
00004D13  0000              add [eax],al
00004D15  0000              add [eax],al
00004D17  0000              add [eax],al
00004D19  0000              add [eax],al
00004D1B  0000              add [eax],al
00004D1D  0000              add [eax],al
00004D1F  0000              add [eax],al
00004D21  0000              add [eax],al
00004D23  0000              add [eax],al
00004D25  0000              add [eax],al
00004D27  0000              add [eax],al
00004D29  0000              add [eax],al
00004D2B  0000              add [eax],al
00004D2D  0000              add [eax],al
00004D2F  0000              add [eax],al
00004D31  0000              add [eax],al
00004D33  0000              add [eax],al
00004D35  0000              add [eax],al
00004D37  0000              add [eax],al
00004D39  0000              add [eax],al
00004D3B  0000              add [eax],al
00004D3D  0000              add [eax],al
00004D3F  0000              add [eax],al
00004D41  0000              add [eax],al
00004D43  0000              add [eax],al
00004D45  0000              add [eax],al
00004D47  0000              add [eax],al
00004D49  0000              add [eax],al
00004D4B  0000              add [eax],al
00004D4D  0000              add [eax],al
00004D4F  0000              add [eax],al
00004D51  0000              add [eax],al
00004D53  0000              add [eax],al
00004D55  0000              add [eax],al
00004D57  0000              add [eax],al
00004D59  0000              add [eax],al
00004D5B  0000              add [eax],al
00004D5D  0000              add [eax],al
00004D5F  0000              add [eax],al
00004D61  0000              add [eax],al
00004D63  0000              add [eax],al
00004D65  0000              add [eax],al
00004D67  0000              add [eax],al
00004D69  0000              add [eax],al
00004D6B  0000              add [eax],al
00004D6D  0000              add [eax],al
00004D6F  0000              add [eax],al
00004D71  0000              add [eax],al
00004D73  0000              add [eax],al
00004D75  0000              add [eax],al
00004D77  0000              add [eax],al
00004D79  0000              add [eax],al
00004D7B  0000              add [eax],al
00004D7D  0000              add [eax],al
00004D7F  0000              add [eax],al
00004D81  0000              add [eax],al
00004D83  0000              add [eax],al
00004D85  0000              add [eax],al
00004D87  0000              add [eax],al
00004D89  0000              add [eax],al
00004D8B  0000              add [eax],al
00004D8D  0000              add [eax],al
00004D8F  0000              add [eax],al
00004D91  0000              add [eax],al
00004D93  0000              add [eax],al
00004D95  0000              add [eax],al
00004D97  0000              add [eax],al
00004D99  0000              add [eax],al
00004D9B  0000              add [eax],al
00004D9D  0000              add [eax],al
00004D9F  0000              add [eax],al
00004DA1  0000              add [eax],al
00004DA3  0000              add [eax],al
00004DA5  0000              add [eax],al
00004DA7  0000              add [eax],al
00004DA9  0000              add [eax],al
00004DAB  0000              add [eax],al
00004DAD  0000              add [eax],al
00004DAF  0000              add [eax],al
00004DB1  0000              add [eax],al
00004DB3  0000              add [eax],al
00004DB5  0000              add [eax],al
00004DB7  0000              add [eax],al
00004DB9  0000              add [eax],al
00004DBB  0000              add [eax],al
00004DBD  0000              add [eax],al
00004DBF  0000              add [eax],al
00004DC1  0000              add [eax],al
00004DC3  0000              add [eax],al
00004DC5  0000              add [eax],al
00004DC7  0000              add [eax],al
00004DC9  0000              add [eax],al
00004DCB  0000              add [eax],al
00004DCD  0000              add [eax],al
00004DCF  0000              add [eax],al
00004DD1  0000              add [eax],al
00004DD3  0000              add [eax],al
00004DD5  0000              add [eax],al
00004DD7  0000              add [eax],al
00004DD9  0000              add [eax],al
00004DDB  0000              add [eax],al
00004DDD  0000              add [eax],al
00004DDF  0000              add [eax],al
00004DE1  0000              add [eax],al
00004DE3  0000              add [eax],al
00004DE5  0000              add [eax],al
00004DE7  0000              add [eax],al
00004DE9  0000              add [eax],al
00004DEB  0000              add [eax],al
00004DED  0000              add [eax],al
00004DEF  0000              add [eax],al
00004DF1  0000              add [eax],al
00004DF3  0000              add [eax],al
00004DF5  0000              add [eax],al
00004DF7  0000              add [eax],al
00004DF9  0000              add [eax],al
00004DFB  0000              add [eax],al
00004DFD  0000              add [eax],al
00004DFF  0000              add [eax],al
00004E01  0000              add [eax],al
00004E03  0000              add [eax],al
00004E05  0000              add [eax],al
00004E07  0000              add [eax],al
00004E09  0000              add [eax],al
00004E0B  0000              add [eax],al
00004E0D  0000              add [eax],al
00004E0F  0000              add [eax],al
00004E11  0000              add [eax],al
00004E13  0000              add [eax],al
00004E15  0000              add [eax],al
00004E17  0000              add [eax],al
00004E19  0000              add [eax],al
00004E1B  0000              add [eax],al
00004E1D  0000              add [eax],al
00004E1F  0000              add [eax],al
00004E21  0000              add [eax],al
00004E23  0000              add [eax],al
00004E25  0000              add [eax],al
00004E27  0000              add [eax],al
00004E29  0000              add [eax],al
00004E2B  0000              add [eax],al
00004E2D  0000              add [eax],al
00004E2F  0000              add [eax],al
00004E31  0000              add [eax],al
00004E33  0000              add [eax],al
00004E35  0000              add [eax],al
00004E37  0000              add [eax],al
00004E39  0000              add [eax],al
00004E3B  0000              add [eax],al
00004E3D  0000              add [eax],al
00004E3F  0000              add [eax],al
00004E41  0000              add [eax],al
00004E43  0000              add [eax],al
00004E45  0000              add [eax],al
00004E47  0000              add [eax],al
00004E49  0000              add [eax],al
00004E4B  0000              add [eax],al
00004E4D  0000              add [eax],al
00004E4F  0000              add [eax],al
00004E51  0000              add [eax],al
00004E53  0000              add [eax],al
00004E55  0000              add [eax],al
00004E57  0000              add [eax],al
00004E59  0000              add [eax],al
00004E5B  0000              add [eax],al
00004E5D  0000              add [eax],al
00004E5F  0000              add [eax],al
00004E61  0000              add [eax],al
00004E63  0000              add [eax],al
00004E65  0000              add [eax],al
00004E67  0000              add [eax],al
00004E69  0000              add [eax],al
00004E6B  0000              add [eax],al
00004E6D  0000              add [eax],al
00004E6F  0000              add [eax],al
00004E71  0000              add [eax],al
00004E73  0000              add [eax],al
00004E75  0000              add [eax],al
00004E77  0000              add [eax],al
00004E79  0000              add [eax],al
00004E7B  0000              add [eax],al
00004E7D  0000              add [eax],al
00004E7F  0000              add [eax],al
00004E81  0000              add [eax],al
00004E83  0000              add [eax],al
00004E85  0000              add [eax],al
00004E87  0000              add [eax],al
00004E89  0000              add [eax],al
00004E8B  0000              add [eax],al
00004E8D  0000              add [eax],al
00004E8F  0000              add [eax],al
00004E91  0000              add [eax],al
00004E93  0000              add [eax],al
00004E95  0000              add [eax],al
00004E97  0000              add [eax],al
00004E99  0000              add [eax],al
00004E9B  0000              add [eax],al
00004E9D  0000              add [eax],al
00004E9F  0000              add [eax],al
00004EA1  0000              add [eax],al
00004EA3  0000              add [eax],al
00004EA5  0000              add [eax],al
00004EA7  0000              add [eax],al
00004EA9  0000              add [eax],al
00004EAB  0000              add [eax],al
00004EAD  0000              add [eax],al
00004EAF  0000              add [eax],al
00004EB1  0000              add [eax],al
00004EB3  0000              add [eax],al
00004EB5  0000              add [eax],al
00004EB7  0000              add [eax],al
00004EB9  0000              add [eax],al
00004EBB  0000              add [eax],al
00004EBD  0000              add [eax],al
00004EBF  0000              add [eax],al
00004EC1  0000              add [eax],al
00004EC3  0000              add [eax],al
00004EC5  0000              add [eax],al
00004EC7  0000              add [eax],al
00004EC9  0000              add [eax],al
00004ECB  0000              add [eax],al
00004ECD  0000              add [eax],al
00004ECF  0000              add [eax],al
00004ED1  0000              add [eax],al
00004ED3  0000              add [eax],al
00004ED5  0000              add [eax],al
00004ED7  0000              add [eax],al
00004ED9  0000              add [eax],al
00004EDB  0000              add [eax],al
00004EDD  0000              add [eax],al
00004EDF  0000              add [eax],al
00004EE1  0000              add [eax],al
00004EE3  0000              add [eax],al
00004EE5  0000              add [eax],al
00004EE7  0000              add [eax],al
00004EE9  0000              add [eax],al
00004EEB  0000              add [eax],al
00004EED  0000              add [eax],al
00004EEF  0000              add [eax],al
00004EF1  0000              add [eax],al
00004EF3  0000              add [eax],al
00004EF5  0000              add [eax],al
00004EF7  0000              add [eax],al
00004EF9  0000              add [eax],al
00004EFB  0000              add [eax],al
00004EFD  0000              add [eax],al
00004EFF  0000              add [eax],al
00004F01  0000              add [eax],al
00004F03  0000              add [eax],al
00004F05  0000              add [eax],al
00004F07  0000              add [eax],al
00004F09  0000              add [eax],al
00004F0B  0000              add [eax],al
00004F0D  0000              add [eax],al
00004F0F  0000              add [eax],al
00004F11  0000              add [eax],al
00004F13  0000              add [eax],al
00004F15  0000              add [eax],al
00004F17  0000              add [eax],al
00004F19  0000              add [eax],al
00004F1B  0000              add [eax],al
00004F1D  0000              add [eax],al
00004F1F  0000              add [eax],al
00004F21  0000              add [eax],al
00004F23  0000              add [eax],al
00004F25  0000              add [eax],al
00004F27  0000              add [eax],al
00004F29  0000              add [eax],al
00004F2B  0000              add [eax],al
00004F2D  0000              add [eax],al
00004F2F  0000              add [eax],al
00004F31  0000              add [eax],al
00004F33  0000              add [eax],al
00004F35  0000              add [eax],al
00004F37  0000              add [eax],al
00004F39  0000              add [eax],al
00004F3B  0000              add [eax],al
00004F3D  0000              add [eax],al
00004F3F  0000              add [eax],al
00004F41  0000              add [eax],al
00004F43  0000              add [eax],al
00004F45  0000              add [eax],al
00004F47  0000              add [eax],al
00004F49  0000              add [eax],al
00004F4B  0000              add [eax],al
00004F4D  0000              add [eax],al
00004F4F  0000              add [eax],al
00004F51  0000              add [eax],al
00004F53  0000              add [eax],al
00004F55  0000              add [eax],al
00004F57  0000              add [eax],al
00004F59  0000              add [eax],al
00004F5B  0000              add [eax],al
00004F5D  0000              add [eax],al
00004F5F  0000              add [eax],al
00004F61  0000              add [eax],al
00004F63  0000              add [eax],al
00004F65  0000              add [eax],al
00004F67  0000              add [eax],al
00004F69  0000              add [eax],al
00004F6B  0000              add [eax],al
00004F6D  0000              add [eax],al
00004F6F  0000              add [eax],al
00004F71  0000              add [eax],al
00004F73  0000              add [eax],al
00004F75  0000              add [eax],al
00004F77  0000              add [eax],al
00004F79  0000              add [eax],al
00004F7B  0000              add [eax],al
00004F7D  0000              add [eax],al
00004F7F  0000              add [eax],al
00004F81  0000              add [eax],al
00004F83  0000              add [eax],al
00004F85  0000              add [eax],al
00004F87  0000              add [eax],al
00004F89  0000              add [eax],al
00004F8B  0000              add [eax],al
00004F8D  0000              add [eax],al
00004F8F  0000              add [eax],al
00004F91  0000              add [eax],al
00004F93  0000              add [eax],al
00004F95  0000              add [eax],al
00004F97  0000              add [eax],al
00004F99  0000              add [eax],al
00004F9B  0000              add [eax],al
00004F9D  0000              add [eax],al
00004F9F  0000              add [eax],al
00004FA1  0000              add [eax],al
00004FA3  0000              add [eax],al
00004FA5  0000              add [eax],al
00004FA7  0000              add [eax],al
00004FA9  0000              add [eax],al
00004FAB  0000              add [eax],al
00004FAD  0000              add [eax],al
00004FAF  0000              add [eax],al
00004FB1  0000              add [eax],al
00004FB3  0000              add [eax],al
00004FB5  0000              add [eax],al
00004FB7  0000              add [eax],al
00004FB9  0000              add [eax],al
00004FBB  0000              add [eax],al
00004FBD  0000              add [eax],al
00004FBF  0000              add [eax],al
00004FC1  0000              add [eax],al
00004FC3  0000              add [eax],al
00004FC5  0000              add [eax],al
00004FC7  0000              add [eax],al
00004FC9  0000              add [eax],al
00004FCB  0000              add [eax],al
00004FCD  0000              add [eax],al
00004FCF  0000              add [eax],al
00004FD1  0000              add [eax],al
00004FD3  0000              add [eax],al
00004FD5  0000              add [eax],al
00004FD7  0000              add [eax],al
00004FD9  0000              add [eax],al
00004FDB  0000              add [eax],al
00004FDD  0000              add [eax],al
00004FDF  0000              add [eax],al
00004FE1  0000              add [eax],al
00004FE3  0000              add [eax],al
00004FE5  0000              add [eax],al
00004FE7  0000              add [eax],al
00004FE9  0000              add [eax],al
00004FEB  0000              add [eax],al
00004FED  0000              add [eax],al
00004FEF  0000              add [eax],al
00004FF1  0000              add [eax],al
00004FF3  0000              add [eax],al
00004FF5  0000              add [eax],al
00004FF7  0000              add [eax],al
00004FF9  0000              add [eax],al
00004FFB  0000              add [eax],al
00004FFD  0000              add [eax],al
00004FFF  0000              add [eax],al
00005001  0000              add [eax],al
00005003  0000              add [eax],al
00005005  0000              add [eax],al
00005007  0000              add [eax],al
00005009  0000              add [eax],al
0000500B  0000              add [eax],al
0000500D  0000              add [eax],al
0000500F  0000              add [eax],al
00005011  0000              add [eax],al
00005013  0000              add [eax],al
00005015  0000              add [eax],al
00005017  0000              add [eax],al
00005019  0000              add [eax],al
0000501B  0000              add [eax],al
0000501D  0000              add [eax],al
0000501F  0000              add [eax],al
00005021  0000              add [eax],al
00005023  0000              add [eax],al
00005025  0000              add [eax],al
00005027  0000              add [eax],al
00005029  0000              add [eax],al
0000502B  0000              add [eax],al
0000502D  0000              add [eax],al
0000502F  0000              add [eax],al
00005031  0000              add [eax],al
00005033  0000              add [eax],al
00005035  0000              add [eax],al
00005037  0000              add [eax],al
00005039  0000              add [eax],al
0000503B  0000              add [eax],al
0000503D  0000              add [eax],al
0000503F  0000              add [eax],al
00005041  0000              add [eax],al
00005043  0000              add [eax],al
00005045  0000              add [eax],al
00005047  0000              add [eax],al
00005049  0000              add [eax],al
0000504B  0000              add [eax],al
0000504D  0000              add [eax],al
0000504F  0000              add [eax],al
00005051  0000              add [eax],al
00005053  0000              add [eax],al
00005055  0000              add [eax],al
00005057  0000              add [eax],al
00005059  0000              add [eax],al
0000505B  0000              add [eax],al
0000505D  0000              add [eax],al
0000505F  0000              add [eax],al
00005061  0000              add [eax],al
00005063  0000              add [eax],al
00005065  0000              add [eax],al
00005067  0000              add [eax],al
00005069  0000              add [eax],al
0000506B  0000              add [eax],al
0000506D  0000              add [eax],al
0000506F  0000              add [eax],al
00005071  0000              add [eax],al
00005073  0000              add [eax],al
00005075  0000              add [eax],al
00005077  0000              add [eax],al
00005079  0000              add [eax],al
0000507B  0000              add [eax],al
0000507D  0000              add [eax],al
0000507F  0000              add [eax],al
00005081  0000              add [eax],al
00005083  0000              add [eax],al
00005085  0000              add [eax],al
00005087  0000              add [eax],al
00005089  0000              add [eax],al
0000508B  0000              add [eax],al
0000508D  0000              add [eax],al
0000508F  0000              add [eax],al
00005091  0000              add [eax],al
00005093  0000              add [eax],al
00005095  0000              add [eax],al
00005097  0000              add [eax],al
00005099  0000              add [eax],al
0000509B  0000              add [eax],al
0000509D  0000              add [eax],al
0000509F  0000              add [eax],al
000050A1  0000              add [eax],al
000050A3  0000              add [eax],al
000050A5  0000              add [eax],al
000050A7  0000              add [eax],al
000050A9  0000              add [eax],al
000050AB  0000              add [eax],al
000050AD  0000              add [eax],al
000050AF  0000              add [eax],al
000050B1  0000              add [eax],al
000050B3  0000              add [eax],al
000050B5  0000              add [eax],al
000050B7  0000              add [eax],al
000050B9  0000              add [eax],al
000050BB  0000              add [eax],al
000050BD  0000              add [eax],al
000050BF  0000              add [eax],al
000050C1  0000              add [eax],al
000050C3  0000              add [eax],al
000050C5  0000              add [eax],al
000050C7  0000              add [eax],al
000050C9  0000              add [eax],al
000050CB  0000              add [eax],al
000050CD  0000              add [eax],al
000050CF  0000              add [eax],al
000050D1  0000              add [eax],al
000050D3  0000              add [eax],al
000050D5  0000              add [eax],al
000050D7  0000              add [eax],al
000050D9  0000              add [eax],al
000050DB  0000              add [eax],al
000050DD  0000              add [eax],al
000050DF  0000              add [eax],al
000050E1  0000              add [eax],al
000050E3  0000              add [eax],al
000050E5  0000              add [eax],al
000050E7  0000              add [eax],al
000050E9  0000              add [eax],al
000050EB  0000              add [eax],al
000050ED  0000              add [eax],al
000050EF  0000              add [eax],al
000050F1  0000              add [eax],al
000050F3  0000              add [eax],al
000050F5  0000              add [eax],al
000050F7  0000              add [eax],al
000050F9  0000              add [eax],al
000050FB  0000              add [eax],al
000050FD  0000              add [eax],al
000050FF  0000              add [eax],al
00005101  0000              add [eax],al
00005103  0000              add [eax],al
00005105  0000              add [eax],al
00005107  0000              add [eax],al
00005109  0000              add [eax],al
0000510B  0000              add [eax],al
0000510D  0000              add [eax],al
0000510F  0000              add [eax],al
00005111  0000              add [eax],al
00005113  0000              add [eax],al
00005115  0000              add [eax],al
00005117  0000              add [eax],al
00005119  0000              add [eax],al
0000511B  0000              add [eax],al
0000511D  0000              add [eax],al
0000511F  0000              add [eax],al
00005121  0000              add [eax],al
00005123  0000              add [eax],al
00005125  0000              add [eax],al
00005127  0000              add [eax],al
00005129  0000              add [eax],al
0000512B  0000              add [eax],al
0000512D  0000              add [eax],al
0000512F  0000              add [eax],al
00005131  0000              add [eax],al
00005133  0000              add [eax],al
00005135  0000              add [eax],al
00005137  0000              add [eax],al
00005139  0000              add [eax],al
0000513B  0000              add [eax],al
0000513D  0000              add [eax],al
0000513F  0000              add [eax],al
00005141  0000              add [eax],al
00005143  0000              add [eax],al
00005145  0000              add [eax],al
00005147  0000              add [eax],al
00005149  0000              add [eax],al
0000514B  0000              add [eax],al
0000514D  0000              add [eax],al
0000514F  0000              add [eax],al
00005151  0000              add [eax],al
00005153  0000              add [eax],al
00005155  0000              add [eax],al
00005157  0000              add [eax],al
00005159  0000              add [eax],al
0000515B  0000              add [eax],al
0000515D  0000              add [eax],al
0000515F  0000              add [eax],al
00005161  0000              add [eax],al
00005163  0000              add [eax],al
00005165  0000              add [eax],al
00005167  0000              add [eax],al
00005169  0000              add [eax],al
0000516B  0000              add [eax],al
0000516D  0000              add [eax],al
0000516F  0000              add [eax],al
00005171  0000              add [eax],al
00005173  0000              add [eax],al
00005175  0000              add [eax],al
00005177  0000              add [eax],al
00005179  0000              add [eax],al
0000517B  0000              add [eax],al
0000517D  0000              add [eax],al
0000517F  0000              add [eax],al
00005181  0000              add [eax],al
00005183  0000              add [eax],al
00005185  0000              add [eax],al
00005187  0000              add [eax],al
00005189  0000              add [eax],al
0000518B  0000              add [eax],al
0000518D  0000              add [eax],al
0000518F  0000              add [eax],al
00005191  0000              add [eax],al
00005193  0000              add [eax],al
00005195  0000              add [eax],al
00005197  0000              add [eax],al
00005199  0000              add [eax],al
0000519B  0000              add [eax],al
0000519D  0000              add [eax],al
0000519F  0000              add [eax],al
000051A1  0000              add [eax],al
000051A3  0000              add [eax],al
000051A5  0000              add [eax],al
000051A7  0000              add [eax],al
000051A9  0000              add [eax],al
000051AB  0000              add [eax],al
000051AD  0000              add [eax],al
000051AF  0000              add [eax],al
000051B1  0000              add [eax],al
000051B3  0000              add [eax],al
000051B5  0000              add [eax],al
000051B7  0000              add [eax],al
000051B9  0000              add [eax],al
000051BB  0000              add [eax],al
000051BD  0000              add [eax],al
000051BF  0000              add [eax],al
000051C1  0000              add [eax],al
000051C3  0000              add [eax],al
000051C5  0000              add [eax],al
000051C7  0000              add [eax],al
000051C9  0000              add [eax],al
000051CB  0000              add [eax],al
000051CD  0000              add [eax],al
000051CF  0000              add [eax],al
000051D1  0000              add [eax],al
000051D3  0000              add [eax],al
000051D5  0000              add [eax],al
000051D7  0000              add [eax],al
000051D9  0000              add [eax],al
000051DB  0000              add [eax],al
000051DD  0000              add [eax],al
000051DF  0000              add [eax],al
000051E1  0000              add [eax],al
000051E3  0000              add [eax],al
000051E5  0000              add [eax],al
000051E7  0000              add [eax],al
000051E9  0000              add [eax],al
000051EB  0000              add [eax],al
000051ED  0000              add [eax],al
000051EF  0000              add [eax],al
000051F1  0000              add [eax],al
000051F3  0000              add [eax],al
000051F5  0000              add [eax],al
000051F7  0000              add [eax],al
000051F9  0000              add [eax],al
000051FB  0000              add [eax],al
000051FD  0000              add [eax],al
000051FF  0000              add [eax],al
00005201  0000              add [eax],al
00005203  0000              add [eax],al
00005205  0000              add [eax],al
00005207  0000              add [eax],al
00005209  0000              add [eax],al
0000520B  0000              add [eax],al
0000520D  0000              add [eax],al
0000520F  0000              add [eax],al
00005211  0000              add [eax],al
00005213  0000              add [eax],al
00005215  0000              add [eax],al
00005217  0000              add [eax],al
00005219  0000              add [eax],al
0000521B  0000              add [eax],al
0000521D  0000              add [eax],al
0000521F  0000              add [eax],al
00005221  0000              add [eax],al
00005223  0000              add [eax],al
00005225  0000              add [eax],al
00005227  0000              add [eax],al
00005229  0000              add [eax],al
0000522B  0000              add [eax],al
0000522D  0000              add [eax],al
0000522F  0000              add [eax],al
00005231  0000              add [eax],al
00005233  0000              add [eax],al
00005235  0000              add [eax],al
00005237  0000              add [eax],al
00005239  0000              add [eax],al
0000523B  0000              add [eax],al
0000523D  0000              add [eax],al
0000523F  0000              add [eax],al
00005241  0000              add [eax],al
00005243  0000              add [eax],al
00005245  0000              add [eax],al
00005247  0000              add [eax],al
00005249  0000              add [eax],al
0000524B  0000              add [eax],al
0000524D  0000              add [eax],al
0000524F  0000              add [eax],al
00005251  0000              add [eax],al
00005253  0000              add [eax],al
00005255  0000              add [eax],al
00005257  0000              add [eax],al
00005259  0000              add [eax],al
0000525B  0000              add [eax],al
0000525D  0000              add [eax],al
0000525F  0000              add [eax],al
00005261  0000              add [eax],al
00005263  0000              add [eax],al
00005265  0000              add [eax],al
00005267  0000              add [eax],al
00005269  0000              add [eax],al
0000526B  0000              add [eax],al
0000526D  0000              add [eax],al
0000526F  0000              add [eax],al
00005271  0000              add [eax],al
00005273  0000              add [eax],al
00005275  0000              add [eax],al
00005277  0000              add [eax],al
00005279  0000              add [eax],al
0000527B  0000              add [eax],al
0000527D  0000              add [eax],al
0000527F  0000              add [eax],al
00005281  0000              add [eax],al
00005283  0000              add [eax],al
00005285  0000              add [eax],al
00005287  0000              add [eax],al
00005289  0000              add [eax],al
0000528B  0000              add [eax],al
0000528D  0000              add [eax],al
0000528F  0000              add [eax],al
00005291  0000              add [eax],al
00005293  0000              add [eax],al
00005295  0000              add [eax],al
00005297  0000              add [eax],al
00005299  0000              add [eax],al
0000529B  0000              add [eax],al
0000529D  0000              add [eax],al
0000529F  0000              add [eax],al
000052A1  0000              add [eax],al
000052A3  0000              add [eax],al
000052A5  0000              add [eax],al
000052A7  0000              add [eax],al
000052A9  0000              add [eax],al
000052AB  0000              add [eax],al
000052AD  0000              add [eax],al
000052AF  0000              add [eax],al
000052B1  0000              add [eax],al
000052B3  0000              add [eax],al
000052B5  0000              add [eax],al
000052B7  0000              add [eax],al
000052B9  0000              add [eax],al
000052BB  0000              add [eax],al
000052BD  0000              add [eax],al
000052BF  0000              add [eax],al
000052C1  0000              add [eax],al
000052C3  0000              add [eax],al
000052C5  0000              add [eax],al
000052C7  0000              add [eax],al
000052C9  0000              add [eax],al
000052CB  0000              add [eax],al
000052CD  0000              add [eax],al
000052CF  0000              add [eax],al
000052D1  0000              add [eax],al
000052D3  0000              add [eax],al
000052D5  0000              add [eax],al
000052D7  0000              add [eax],al
000052D9  0000              add [eax],al
000052DB  0000              add [eax],al
000052DD  0000              add [eax],al
000052DF  0000              add [eax],al
000052E1  0000              add [eax],al
000052E3  0000              add [eax],al
000052E5  0000              add [eax],al
000052E7  0000              add [eax],al
000052E9  0000              add [eax],al
000052EB  0000              add [eax],al
000052ED  0000              add [eax],al
000052EF  0000              add [eax],al
000052F1  0000              add [eax],al
000052F3  0000              add [eax],al
000052F5  0000              add [eax],al
000052F7  0000              add [eax],al
000052F9  0000              add [eax],al
000052FB  0000              add [eax],al
000052FD  0000              add [eax],al
000052FF  0000              add [eax],al
00005301  0000              add [eax],al
00005303  0000              add [eax],al
00005305  0000              add [eax],al
00005307  0000              add [eax],al
00005309  0000              add [eax],al
0000530B  0000              add [eax],al
0000530D  0000              add [eax],al
0000530F  0000              add [eax],al
00005311  0000              add [eax],al
00005313  0000              add [eax],al
00005315  0000              add [eax],al
00005317  0000              add [eax],al
00005319  0000              add [eax],al
0000531B  0000              add [eax],al
0000531D  0000              add [eax],al
0000531F  0000              add [eax],al
00005321  0000              add [eax],al
00005323  0000              add [eax],al
00005325  0000              add [eax],al
00005327  0000              add [eax],al
00005329  0000              add [eax],al
0000532B  0000              add [eax],al
0000532D  0000              add [eax],al
0000532F  0000              add [eax],al
00005331  0000              add [eax],al
00005333  0000              add [eax],al
00005335  0000              add [eax],al
00005337  0000              add [eax],al
00005339  0000              add [eax],al
0000533B  0000              add [eax],al
0000533D  0000              add [eax],al
0000533F  0000              add [eax],al
00005341  0000              add [eax],al
00005343  0000              add [eax],al
00005345  0000              add [eax],al
00005347  0000              add [eax],al
00005349  0000              add [eax],al
0000534B  0000              add [eax],al
0000534D  0000              add [eax],al
0000534F  0000              add [eax],al
00005351  0000              add [eax],al
00005353  0000              add [eax],al
00005355  0000              add [eax],al
00005357  0000              add [eax],al
00005359  0000              add [eax],al
0000535B  0000              add [eax],al
0000535D  0000              add [eax],al
0000535F  0000              add [eax],al
00005361  0000              add [eax],al
00005363  0000              add [eax],al
00005365  0000              add [eax],al
00005367  0000              add [eax],al
00005369  0000              add [eax],al
0000536B  0000              add [eax],al
0000536D  0000              add [eax],al
0000536F  0000              add [eax],al
00005371  0000              add [eax],al
00005373  0000              add [eax],al
00005375  0000              add [eax],al
00005377  0000              add [eax],al
00005379  0000              add [eax],al
0000537B  0000              add [eax],al
0000537D  0000              add [eax],al
0000537F  0000              add [eax],al
00005381  0000              add [eax],al
00005383  0000              add [eax],al
00005385  0000              add [eax],al
00005387  0000              add [eax],al
00005389  0000              add [eax],al
0000538B  0000              add [eax],al
0000538D  0000              add [eax],al
0000538F  0000              add [eax],al
00005391  0000              add [eax],al
00005393  0000              add [eax],al
00005395  0000              add [eax],al
00005397  0000              add [eax],al
00005399  0000              add [eax],al
0000539B  0000              add [eax],al
0000539D  0000              add [eax],al
0000539F  0000              add [eax],al
000053A1  0000              add [eax],al
000053A3  0000              add [eax],al
000053A5  0000              add [eax],al
000053A7  0000              add [eax],al
000053A9  0000              add [eax],al
000053AB  0000              add [eax],al
000053AD  0000              add [eax],al
000053AF  0000              add [eax],al
000053B1  0000              add [eax],al
000053B3  0000              add [eax],al
000053B5  0000              add [eax],al
000053B7  0000              add [eax],al
000053B9  0000              add [eax],al
000053BB  0000              add [eax],al
000053BD  0000              add [eax],al
000053BF  0000              add [eax],al
000053C1  0000              add [eax],al
000053C3  0000              add [eax],al
000053C5  0000              add [eax],al
000053C7  0000              add [eax],al
000053C9  0000              add [eax],al
000053CB  0000              add [eax],al
000053CD  0000              add [eax],al
000053CF  0000              add [eax],al
000053D1  0000              add [eax],al
000053D3  0000              add [eax],al
000053D5  0000              add [eax],al
000053D7  0000              add [eax],al
000053D9  0000              add [eax],al
000053DB  0000              add [eax],al
000053DD  0000              add [eax],al
000053DF  0000              add [eax],al
000053E1  0000              add [eax],al
000053E3  0000              add [eax],al
000053E5  0000              add [eax],al
000053E7  0000              add [eax],al
000053E9  0000              add [eax],al
000053EB  0000              add [eax],al
000053ED  0000              add [eax],al
000053EF  0000              add [eax],al
000053F1  0000              add [eax],al
000053F3  0000              add [eax],al
000053F5  0000              add [eax],al
000053F7  0000              add [eax],al
000053F9  0000              add [eax],al
000053FB  0000              add [eax],al
000053FD  0000              add [eax],al
000053FF  0000              add [eax],al
00005401  0000              add [eax],al
00005403  0000              add [eax],al
00005405  0000              add [eax],al
00005407  0000              add [eax],al
00005409  0000              add [eax],al
0000540B  0000              add [eax],al
0000540D  0000              add [eax],al
0000540F  0000              add [eax],al
00005411  0000              add [eax],al
00005413  0000              add [eax],al
00005415  0000              add [eax],al
00005417  0000              add [eax],al
00005419  0000              add [eax],al
0000541B  0000              add [eax],al
0000541D  0000              add [eax],al
0000541F  0000              add [eax],al
00005421  0000              add [eax],al
00005423  0000              add [eax],al
00005425  0000              add [eax],al
00005427  0000              add [eax],al
00005429  0000              add [eax],al
0000542B  0000              add [eax],al
0000542D  0000              add [eax],al
0000542F  0000              add [eax],al
00005431  0000              add [eax],al
00005433  0000              add [eax],al
00005435  0000              add [eax],al
00005437  0000              add [eax],al
00005439  0000              add [eax],al
0000543B  0000              add [eax],al
0000543D  0000              add [eax],al
0000543F  0000              add [eax],al
00005441  0000              add [eax],al
00005443  0000              add [eax],al
00005445  0000              add [eax],al
00005447  0000              add [eax],al
00005449  0000              add [eax],al
0000544B  0000              add [eax],al
0000544D  0000              add [eax],al
0000544F  0000              add [eax],al
00005451  0000              add [eax],al
00005453  0000              add [eax],al
00005455  0000              add [eax],al
00005457  0000              add [eax],al
00005459  0000              add [eax],al
0000545B  0000              add [eax],al
0000545D  0000              add [eax],al
0000545F  0000              add [eax],al
00005461  0000              add [eax],al
00005463  0000              add [eax],al
00005465  0000              add [eax],al
00005467  0000              add [eax],al
00005469  0000              add [eax],al
0000546B  0000              add [eax],al
0000546D  0000              add [eax],al
0000546F  FF07              inc dword [edi]
00005471  6F                outsd
00005472  4C                dec esp
00005473  0000              add [eax],al
00005475  0000              add [eax],al
00005477  0000              add [eax],al
00005479  0000              add [eax],al
0000547B  0000              add [eax],al
0000547D  0000              add [eax],al
0000547F  0023              add [ebx],ah
00005481  44                inc esp
00005482  45                inc ebp
00005483  20446976          and [ecx+ebp*2+0x76],al
00005487  696465204572726F  imul esp,[ebp+0x20],dword 0x6f727245
0000548F  7200              jc 0x5491
00005491  0000              add [eax],al
00005493  0000              add [eax],al
00005495  0000              add [eax],al
00005497  0000              add [eax],al
00005499  0000              add [eax],al
0000549B  0000              add [eax],al
0000549D  0000              add [eax],al
0000549F  0000              add [eax],al
000054A1  0000              add [eax],al
000054A3  0000              add [eax],al
000054A5  0000              add [eax],al
000054A7  0000              add [eax],al
000054A9  0000              add [eax],al
000054AB  0000              add [eax],al
000054AD  0000              add [eax],al
000054AF  0000              add [eax],al
000054B1  0000              add [eax],al
000054B3  0000              add [eax],al
000054B5  0000              add [eax],al
000054B7  0000              add [eax],al
000054B9  0000              add [eax],al
000054BB  0000              add [eax],al
000054BD  0000              add [eax],al
000054BF  0023              add [ebx],ah
000054C1  44                inc esp
000054C2  42                inc edx
000054C3  205245            and [edx+0x45],dl
000054C6  53                push ebx
000054C7  45                inc ebp
000054C8  52                push edx
000054C9  56                push esi
000054CA  45                inc ebp
000054CB  44                inc esp
000054CC  0000              add [eax],al
000054CE  0000              add [eax],al
000054D0  0000              add [eax],al
000054D2  0000              add [eax],al
000054D4  0000              add [eax],al
000054D6  0000              add [eax],al
000054D8  0000              add [eax],al
000054DA  0000              add [eax],al
000054DC  0000              add [eax],al
000054DE  0000              add [eax],al
000054E0  0000              add [eax],al
000054E2  0000              add [eax],al
000054E4  0000              add [eax],al
000054E6  0000              add [eax],al
000054E8  0000              add [eax],al
000054EA  0000              add [eax],al
000054EC  0000              add [eax],al
000054EE  0000              add [eax],al
000054F0  0000              add [eax],al
000054F2  0000              add [eax],al
000054F4  0000              add [eax],al
000054F6  0000              add [eax],al
000054F8  0000              add [eax],al
000054FA  0000              add [eax],al
000054FC  0000              add [eax],al
000054FE  0000              add [eax],al
00005500  A1AA20204E        mov eax,[0x4e2020aa]
00005505  4D                dec ebp
00005506  49                dec ecx
00005507  20496E            and [ecx+0x6e],cl
0000550A  7465              jz 0x5571
0000550C  7272              jc 0x5580
0000550E  7570              jnz 0x5580
00005510  7400              jz 0x5512
00005512  0000              add [eax],al
00005514  0000              add [eax],al
00005516  0000              add [eax],al
00005518  0000              add [eax],al
0000551A  0000              add [eax],al
0000551C  0000              add [eax],al
0000551E  0000              add [eax],al
00005520  0000              add [eax],al
00005522  0000              add [eax],al
00005524  0000              add [eax],al
00005526  0000              add [eax],al
00005528  0000              add [eax],al
0000552A  0000              add [eax],al
0000552C  0000              add [eax],al
0000552E  0000              add [eax],al
00005530  0000              add [eax],al
00005532  0000              add [eax],al
00005534  0000              add [eax],al
00005536  0000              add [eax],al
00005538  0000              add [eax],al
0000553A  0000              add [eax],al
0000553C  0000              add [eax],al
0000553E  0000              add [eax],al
00005540  234250            and eax,[edx+0x50]
00005543  204272            and [edx+0x72],al
00005546  6561              gs popa
00005548  6B706F69          imul esi,[eax+0x6f],byte +0x69
0000554C  6E                outsb
0000554D  7400              jz 0x554f
0000554F  0000              add [eax],al
00005551  0000              add [eax],al
00005553  0000              add [eax],al
00005555  0000              add [eax],al
00005557  0000              add [eax],al
00005559  0000              add [eax],al
0000555B  0000              add [eax],al
0000555D  0000              add [eax],al
0000555F  0000              add [eax],al
00005561  0000              add [eax],al
00005563  0000              add [eax],al
00005565  0000              add [eax],al
00005567  0000              add [eax],al
00005569  0000              add [eax],al
0000556B  0000              add [eax],al
0000556D  0000              add [eax],al
0000556F  0000              add [eax],al
00005571  0000              add [eax],al
00005573  0000              add [eax],al
00005575  0000              add [eax],al
00005577  0000              add [eax],al
00005579  0000              add [eax],al
0000557B  0000              add [eax],al
0000557D  0000              add [eax],al
0000557F  0023              add [ebx],ah
00005581  4F                dec edi
00005582  46                inc esi
00005583  204F76            and [edi+0x76],cl
00005586  657266            gs jc 0x55ef
00005589  6C                insb
0000558A  6F                outsd
0000558B  7700              ja 0x558d
0000558D  0000              add [eax],al
0000558F  0000              add [eax],al
00005591  0000              add [eax],al
00005593  0000              add [eax],al
00005595  0000              add [eax],al
00005597  0000              add [eax],al
00005599  0000              add [eax],al
0000559B  0000              add [eax],al
0000559D  0000              add [eax],al
0000559F  0000              add [eax],al
000055A1  0000              add [eax],al
000055A3  0000              add [eax],al
000055A5  0000              add [eax],al
000055A7  0000              add [eax],al
000055A9  0000              add [eax],al
000055AB  0000              add [eax],al
000055AD  0000              add [eax],al
000055AF  0000              add [eax],al
000055B1  0000              add [eax],al
000055B3  0000              add [eax],al
000055B5  0000              add [eax],al
000055B7  0000              add [eax],al
000055B9  0000              add [eax],al
000055BB  0000              add [eax],al
000055BD  0000              add [eax],al
000055BF  0023              add [ebx],ah
000055C1  42                inc edx
000055C2  52                push edx
000055C3  20424F            and [edx+0x4f],al
000055C6  55                push ebp
000055C7  4E                dec esi
000055C8  44                inc esp
000055C9  205261            and [edx+0x61],dl
000055CC  6E                outsb
000055CD  6765204578        and [gs:di+0x78],al
000055D2  636565            arpl [ebp+0x65],sp
000055D5  6465640000        add [fs:eax],al
000055DA  0000              add [eax],al
000055DC  0000              add [eax],al
000055DE  0000              add [eax],al
000055E0  0000              add [eax],al
000055E2  0000              add [eax],al
000055E4  0000              add [eax],al
000055E6  0000              add [eax],al
000055E8  0000              add [eax],al
000055EA  0000              add [eax],al
000055EC  0000              add [eax],al
000055EE  0000              add [eax],al
000055F0  0000              add [eax],al
000055F2  0000              add [eax],al
000055F4  0000              add [eax],al
000055F6  0000              add [eax],al
000055F8  0000              add [eax],al
000055FA  0000              add [eax],al
000055FC  0000              add [eax],al
000055FE  0000              add [eax],al
00005600  235544            and edx,[ebp+0x44]
00005603  20496E            and [ecx+0x6e],cl
00005606  7661              jna 0x5669
00005608  6C                insb
00005609  6964204F70636F64  imul esp,[eax+0x4f],dword 0x646f6370
00005611  652028            and [gs:eax],ch
00005614  55                push ebp
00005615  6E                outsb
00005616  646566696E656420  imul bp,[gs:esi+0x65],word 0x2064
0000561E  4F                dec edi
0000561F  7063              jo 0x5684
00005621  6F                outsd
00005622  64652900          sub [gs:eax],eax
00005626  0000              add [eax],al
00005628  0000              add [eax],al
0000562A  0000              add [eax],al
0000562C  0000              add [eax],al
0000562E  0000              add [eax],al
00005630  0000              add [eax],al
00005632  0000              add [eax],al
00005634  0000              add [eax],al
00005636  0000              add [eax],al
00005638  0000              add [eax],al
0000563A  0000              add [eax],al
0000563C  0000              add [eax],al
0000563E  0000              add [eax],al
00005640  234E4D            and ecx,[esi+0x4d]
00005643  20446576          and [ebp+0x76],al
00005647  696365204E6F74    imul esp,[ebx+0x65],dword 0x746f4e20
0000564E  204176            and [ecx+0x76],al
00005651  61                popa
00005652  696C61626C652028  imul ebp,[ecx+0x62],dword 0x2820656c
0000565A  4E                dec esi
0000565B  6F                outsd
0000565C  204D61            and [ebp+0x61],cl
0000565F  7468              jz 0x56c9
00005661  20436F            and [ebx+0x6f],al
00005664  7072              jo 0x56d8
00005666  6F                outsd
00005667  636573            arpl [ebp+0x73],sp
0000566A  736F              jnc 0x56db
0000566C  7229              jc 0x5697
0000566E  0000              add [eax],al
00005670  0000              add [eax],al
00005672  0000              add [eax],al
00005674  0000              add [eax],al
00005676  0000              add [eax],al
00005678  0000              add [eax],al
0000567A  0000              add [eax],al
0000567C  0000              add [eax],al
0000567E  0000              add [eax],al
00005680  23444620          and eax,[esi+eax*2+0x20]
00005684  44                inc esp
00005685  6F                outsd
00005686  7562              jnz 0x56ea
00005688  6C                insb
00005689  65204661          and [gs:esi+0x61],al
0000568D  756C              jnz 0x56fb
0000568F  7424              jz 0x56b5
00005691  0000              add [eax],al
00005693  0000              add [eax],al
00005695  0000              add [eax],al
00005697  0000              add [eax],al
00005699  0000              add [eax],al
0000569B  0000              add [eax],al
0000569D  0000              add [eax],al
0000569F  0000              add [eax],al
000056A1  0000              add [eax],al
000056A3  0000              add [eax],al
000056A5  0000              add [eax],al
000056A7  0000              add [eax],al
000056A9  0000              add [eax],al
000056AB  0000              add [eax],al
000056AD  0000              add [eax],al
000056AF  0000              add [eax],al
000056B1  0000              add [eax],al
000056B3  0000              add [eax],al
000056B5  0000              add [eax],al
000056B7  0000              add [eax],al
000056B9  0000              add [eax],al
000056BB  0000              add [eax],al
000056BD  0000              add [eax],al
000056BF  0020              add [eax],ah
000056C1  2020              and [eax],ah
000056C3  20436F            and [ebx+0x6f],al
000056C6  7072              jo 0x573a
000056C8  6F                outsd
000056C9  636573            arpl [ebp+0x73],sp
000056CC  736F              jnc 0x573d
000056CE  7220              jc 0x56f0
000056D0  53                push ebx
000056D1  65676D            gs a16 insd
000056D4  656E              gs outsb
000056D6  7420              jz 0x56f8
000056D8  4F                dec edi
000056D9  7665              jna 0x5740
000056DB  7272              jc 0x574f
000056DD  756E              jnz 0x574d
000056DF  2028              and [eax],ch
000056E1  7265              jc 0x5748
000056E3  7365              jnc 0x574a
000056E5  7276              jc 0x575d
000056E7  65642900          sub [fs:eax],eax
000056EB  0000              add [eax],al
000056ED  0000              add [eax],al
000056EF  0000              add [eax],al
000056F1  0000              add [eax],al
000056F3  0000              add [eax],al
000056F5  0000              add [eax],al
000056F7  0000              add [eax],al
000056F9  0000              add [eax],al
000056FB  0000              add [eax],al
000056FD  0000              add [eax],al
000056FF  0023              add [ebx],ah
00005701  54                push esp
00005702  53                push ebx
00005703  20496E            and [ecx+0x6e],cl
00005706  7661              jna 0x5769
00005708  6C                insb
00005709  6964205453530000  imul esp,[eax+0x54],dword 0x5353
00005711  0000              add [eax],al
00005713  0000              add [eax],al
00005715  0000              add [eax],al
00005717  0000              add [eax],al
00005719  0000              add [eax],al
0000571B  0000              add [eax],al
0000571D  0000              add [eax],al
0000571F  0000              add [eax],al
00005721  0000              add [eax],al
00005723  0000              add [eax],al
00005725  0000              add [eax],al
00005727  0000              add [eax],al
00005729  0000              add [eax],al
0000572B  0000              add [eax],al
0000572D  0000              add [eax],al
0000572F  0000              add [eax],al
00005731  0000              add [eax],al
00005733  0000              add [eax],al
00005735  0000              add [eax],al
00005737  0000              add [eax],al
00005739  0000              add [eax],al
0000573B  0000              add [eax],al
0000573D  0000              add [eax],al
0000573F  0023              add [ebx],ah
00005741  4E                dec esi
00005742  50                push eax
00005743  205365            and [ebx+0x65],dl
00005746  676D              a16 insd
00005748  656E              gs outsb
0000574A  7420              jz 0x576c
0000574C  4E                dec esi
0000574D  6F                outsd
0000574E  7420              jz 0x5770
00005750  50                push eax
00005751  7265              jc 0x57b8
00005753  7365              jnc 0x57ba
00005755  6E                outsb
00005756  7400              jz 0x5758
00005758  0000              add [eax],al
0000575A  0000              add [eax],al
0000575C  0000              add [eax],al
0000575E  0000              add [eax],al
00005760  0000              add [eax],al
00005762  0000              add [eax],al
00005764  0000              add [eax],al
00005766  0000              add [eax],al
00005768  0000              add [eax],al
0000576A  0000              add [eax],al
0000576C  0000              add [eax],al
0000576E  0000              add [eax],al
00005770  0000              add [eax],al
00005772  0000              add [eax],al
00005774  0000              add [eax],al
00005776  0000              add [eax],al
00005778  0000              add [eax],al
0000577A  0000              add [eax],al
0000577C  0000              add [eax],al
0000577E  0000              add [eax],al
00005780  235353            and edx,[ebx+0x53]
00005783  205374            and [ebx+0x74],dl
00005786  61                popa
00005787  636B2D            arpl [ebx+0x2d],bp
0000578A  53                push ebx
0000578B  65676D            gs a16 insd
0000578E  656E              gs outsb
00005790  7420              jz 0x57b2
00005792  46                inc esi
00005793  61                popa
00005794  756C              jnz 0x5802
00005796  7400              jz 0x5798
00005798  0000              add [eax],al
0000579A  0000              add [eax],al
0000579C  0000              add [eax],al
0000579E  0000              add [eax],al
000057A0  0000              add [eax],al
000057A2  0000              add [eax],al
000057A4  0000              add [eax],al
000057A6  0000              add [eax],al
000057A8  0000              add [eax],al
000057AA  0000              add [eax],al
000057AC  0000              add [eax],al
000057AE  0000              add [eax],al
000057B0  0000              add [eax],al
000057B2  0000              add [eax],al
000057B4  0000              add [eax],al
000057B6  0000              add [eax],al
000057B8  0000              add [eax],al
000057BA  0000              add [eax],al
000057BC  0000              add [eax],al
000057BE  0000              add [eax],al
000057C0  234750            and eax,[edi+0x50]
000057C3  204765            and [edi+0x65],al
000057C6  6E                outsb
000057C7  657261            gs jc 0x582b
000057CA  6C                insb
000057CB  205072            and [eax+0x72],dl
000057CE  6F                outsd
000057CF  7465              jz 0x5836
000057D1  6374696F          arpl [ecx+ebp*2+0x6f],si
000057D5  6E                outsb
000057D6  0000              add [eax],al
000057D8  0000              add [eax],al
000057DA  0000              add [eax],al
000057DC  0000              add [eax],al
000057DE  0000              add [eax],al
000057E0  0000              add [eax],al
000057E2  0000              add [eax],al
000057E4  0000              add [eax],al
000057E6  0000              add [eax],al
000057E8  0000              add [eax],al
000057EA  0000              add [eax],al
000057EC  0000              add [eax],al
000057EE  0000              add [eax],al
000057F0  0000              add [eax],al
000057F2  0000              add [eax],al
000057F4  0000              add [eax],al
000057F6  0000              add [eax],al
000057F8  0000              add [eax],al
000057FA  0000              add [eax],al
000057FC  0000              add [eax],al
000057FE  0000              add [eax],al
00005800  235046            and edx,[eax+0x46]
00005803  205061            and [eax+0x61],dl
00005806  6765204661        and [gs:bp+0x61],al
0000580B  756C              jnz 0x5879
0000580D  7424              jz 0x5833
0000580F  0000              add [eax],al
00005811  0000              add [eax],al
00005813  0000              add [eax],al
00005815  0000              add [eax],al
00005817  0000              add [eax],al
00005819  0000              add [eax],al
0000581B  0000              add [eax],al
0000581D  0000              add [eax],al
0000581F  0000              add [eax],al
00005821  0000              add [eax],al
00005823  0000              add [eax],al
00005825  0000              add [eax],al
00005827  0000              add [eax],al
00005829  0000              add [eax],al
0000582B  0000              add [eax],al
0000582D  0000              add [eax],al
0000582F  0000              add [eax],al
00005831  0000              add [eax],al
00005833  0000              add [eax],al
00005835  0000              add [eax],al
00005837  0000              add [eax],al
00005839  0000              add [eax],al
0000583B  0000              add [eax],al
0000583D  0000              add [eax],al
0000583F  00A1AA202028      add [ecx+0x282020aa],ah
00005845  49                dec ecx
00005846  6E                outsb
00005847  7465              jz 0x58ae
00005849  6C                insb
0000584A  207265            and [edx+0x65],dh
0000584D  7365              jnc 0x58b4
0000584F  7276              jc 0x58c7
00005851  65642E20446F20    and [cs:edi+ebp*2+0x20],al
00005858  6E                outsb
00005859  6F                outsd
0000585A  7420              jz 0x587c
0000585C  7573              jnz 0x58d1
0000585E  652E2900          sub [cs:eax],eax
00005862  0000              add [eax],al
00005864  0000              add [eax],al
00005866  0000              add [eax],al
00005868  0000              add [eax],al
0000586A  0000              add [eax],al
0000586C  0000              add [eax],al
0000586E  0000              add [eax],al
00005870  0000              add [eax],al
00005872  0000              add [eax],al
00005874  0000              add [eax],al
00005876  0000              add [eax],al
00005878  0000              add [eax],al
0000587A  0000              add [eax],al
0000587C  0000              add [eax],al
0000587E  0000              add [eax],al
00005880  234D46            and ecx,[ebp+0x46]
00005883  207838            and [eax+0x38],bh
00005886  37                aaa
00005887  204650            and [esi+0x50],al
0000588A  55                push ebp
0000588B  20466C            and [esi+0x6c],al
0000588E  6F                outsd
0000588F  61                popa
00005890  7469              jz 0x58fb
00005892  6E                outsb
00005893  672D506F696E      a16 sub eax,0x6e696f50
00005899  7420              jz 0x58bb
0000589B  45                inc ebp
0000589C  7272              jc 0x5910
0000589E  6F                outsd
0000589F  7220              jc 0x58c1
000058A1  284D61            sub [ebp+0x61],cl
000058A4  7468              jz 0x590e
000058A6  204661            and [esi+0x61],al
000058A9  756C              jnz 0x5917
000058AB  7429              jz 0x58d6
000058AD  0000              add [eax],al
000058AF  0000              add [eax],al
000058B1  0000              add [eax],al
000058B3  0000              add [eax],al
000058B5  0000              add [eax],al
000058B7  0000              add [eax],al
000058B9  0000              add [eax],al
000058BB  0000              add [eax],al
000058BD  0000              add [eax],al
000058BF  0023              add [ebx],ah
000058C1  41                inc ecx
000058C2  43                inc ebx
000058C3  20416C            and [ecx+0x6c],al
000058C6  69676E6D656E74    imul esp,[edi+0x6e],dword 0x746e656d
000058CD  204368            and [ebx+0x68],al
000058D0  65636B00          arpl [gs:ebx+0x0],bp
000058D4  0000              add [eax],al
000058D6  0000              add [eax],al
000058D8  0000              add [eax],al
000058DA  0000              add [eax],al
000058DC  0000              add [eax],al
000058DE  0000              add [eax],al
000058E0  0000              add [eax],al
000058E2  0000              add [eax],al
000058E4  0000              add [eax],al
000058E6  0000              add [eax],al
000058E8  0000              add [eax],al
000058EA  0000              add [eax],al
000058EC  0000              add [eax],al
000058EE  0000              add [eax],al
000058F0  0000              add [eax],al
000058F2  0000              add [eax],al
000058F4  0000              add [eax],al
000058F6  0000              add [eax],al
000058F8  0000              add [eax],al
000058FA  0000              add [eax],al
000058FC  0000              add [eax],al
000058FE  0000              add [eax],al
00005900  234D43            and ecx,[ebp+0x43]
00005903  204D61            and [ebp+0x61],cl
00005906  636869            arpl [eax+0x69],bp
00005909  6E                outsb
0000590A  65204368          and [gs:ebx+0x68],al
0000590E  65636B00          arpl [gs:ebx+0x0],bp
00005912  0000              add [eax],al
00005914  0000              add [eax],al
00005916  0000              add [eax],al
00005918  0000              add [eax],al
0000591A  0000              add [eax],al
0000591C  0000              add [eax],al
0000591E  0000              add [eax],al
00005920  0000              add [eax],al
00005922  0000              add [eax],al
00005924  0000              add [eax],al
00005926  0000              add [eax],al
00005928  0000              add [eax],al
0000592A  0000              add [eax],al
0000592C  0000              add [eax],al
0000592E  0000              add [eax],al
00005930  0000              add [eax],al
00005932  0000              add [eax],al
00005934  0000              add [eax],al
00005936  0000              add [eax],al
00005938  0000              add [eax],al
0000593A  0000              add [eax],al
0000593C  0000              add [eax],al
0000593E  0000              add [eax],al
00005940  235846            and ebx,[eax+0x46]
00005943  205349            and [ebx+0x49],dl
00005946  4D                dec ebp
00005947  44                inc esp
00005948  20466C            and [esi+0x6c],al
0000594B  6F                outsd
0000594C  61                popa
0000594D  7469              jz 0x59b8
0000594F  6E                outsb
00005950  672D506F696E      a16 sub eax,0x6e696f50
00005956  7420              jz 0x5978
00005958  45                inc ebp
00005959  7863              js 0x59be
0000595B  657074            gs jo 0x59d2
0000595E  696F6E00000000    imul ebp,[edi+0x6e],dword 0x0
00005965  0000              add [eax],al
00005967  0000              add [eax],al
00005969  0000              add [eax],al
0000596B  0000              add [eax],al
0000596D  0000              add [eax],al
0000596F  0000              add [eax],al
00005971  0000              add [eax],al
00005973  0000              add [eax],al
00005975  0000              add [eax],al
00005977  0000              add [eax],al
00005979  0000              add [eax],al
0000597B  0000              add [eax],al
0000597D  0000              add [eax],al
0000597F  0000              add [eax],al
00005981  0000              add [eax],al
00005983  0000              add [eax],al
00005985  0000              add [eax],al
00005987  0000              add [eax],al
00005989  0000              add [eax],al
0000598B  0000              add [eax],al
0000598D  0000              add [eax],al
0000598F  0000              add [eax],al
00005991  0000              add [eax],al
00005993  000410            add [eax+edx],al
00005996  0000              add [eax],al
00005998  F9                stc
00005999  1000              adc [eax],al
0000599B  00D0              add al,dl
0000599D  1200              adc al,[eax]
0000599F  0000              add [eax],al
000059A1  0000              add [eax],al
000059A3  0000              add [eax],al
000059A5  0000              add [eax],al
000059A7  0000              add [eax],al
000059A9  0000              add [eax],al
000059AB  0022              add [edx],ah
000059AD  0100              add [eax],eax
000059AF  0022              add [edx],ah
000059B1  0100              add [eax],eax
000059B3  0000              add [eax],al
000059B5  0000              add [eax],al
000059B7  0031              add [ecx],dh
000059B9  0000              add [eax],al
000059BB  0021              add [ecx],ah
000059BD  0000              add [eax],al
000059BF  0000              add [eax],al
000059C1  0000              add [eax],al
000059C3  0032              add [edx],dh
000059C5  0000              add [eax],al
000059C7  004000            add [eax+0x0],al
000059CA  0000              add [eax],al
000059CC  0000              add [eax],al
000059CE  0000              add [eax],al
000059D0  3300              xor eax,[eax]
000059D2  0000              add [eax],al
000059D4  2300              and eax,[eax]
000059D6  0000              add [eax],al
000059D8  0000              add [eax],al
000059DA  0000              add [eax],al
000059DC  3400              xor al,0x0
000059DE  0000              add [eax],al
000059E0  2400              and al,0x0
000059E2  0000              add [eax],al
000059E4  0000              add [eax],al
000059E6  0000              add [eax],al
000059E8  3500000025        xor eax,0x25000000
000059ED  0000              add [eax],al
000059EF  0000              add [eax],al
000059F1  0000              add [eax],al
000059F3  0036              add [esi],dh
000059F5  0000              add [eax],al
000059F7  005E00            add [esi+0x0],bl
000059FA  0000              add [eax],al
000059FC  0000              add [eax],al
000059FE  0000              add [eax],al
00005A00  37                aaa
00005A01  0000              add [eax],al
00005A03  0026              add [esi],ah
00005A05  0000              add [eax],al
00005A07  0000              add [eax],al
00005A09  0000              add [eax],al
00005A0B  0038              add [eax],bh
00005A0D  0000              add [eax],al
00005A0F  002A              add [edx],ch
00005A11  0000              add [eax],al
00005A13  0000              add [eax],al
00005A15  0000              add [eax],al
00005A17  0039              add [ecx],bh
00005A19  0000              add [eax],al
00005A1B  0028              add [eax],ch
00005A1D  0000              add [eax],al
00005A1F  0000              add [eax],al
00005A21  0000              add [eax],al
00005A23  0030              add [eax],dh
00005A25  0000              add [eax],al
00005A27  0029              add [ecx],ch
00005A29  0000              add [eax],al
00005A2B  0000              add [eax],al
00005A2D  0000              add [eax],al
00005A2F  002D0000005F      add [0x5f000000],ch
00005A35  0000              add [eax],al
00005A37  0000              add [eax],al
00005A39  0000              add [eax],al
00005A3B  003D0000002B      add [0x2b000000],bh
00005A41  0000              add [eax],al
00005A43  0000              add [eax],al
00005A45  0000              add [eax],al
00005A47  0023              add [ebx],ah
00005A49  0100              add [eax],eax
00005A4B  0023              add [ebx],ah
00005A4D  0100              add [eax],eax
00005A4F  0000              add [eax],al
00005A51  0000              add [eax],al
00005A53  0021              add [ecx],ah
00005A55  0100              add [eax],eax
00005A57  0021              add [ecx],ah
00005A59  0100              add [eax],eax
00005A5B  0000              add [eax],al
00005A5D  0000              add [eax],al
00005A5F  007100            add [ecx+0x0],dh
00005A62  0000              add [eax],al
00005A64  51                push ecx
00005A65  0000              add [eax],al
00005A67  0000              add [eax],al
00005A69  0000              add [eax],al
00005A6B  007700            add [edi+0x0],dh
00005A6E  0000              add [eax],al
00005A70  57                push edi
00005A71  0000              add [eax],al
00005A73  0000              add [eax],al
00005A75  0000              add [eax],al
00005A77  006500            add [ebp+0x0],ah
00005A7A  0000              add [eax],al
00005A7C  45                inc ebp
00005A7D  0000              add [eax],al
00005A7F  0000              add [eax],al
00005A81  0000              add [eax],al
00005A83  007200            add [edx+0x0],dh
00005A86  0000              add [eax],al
00005A88  52                push edx
00005A89  0000              add [eax],al
00005A8B  0000              add [eax],al
00005A8D  0000              add [eax],al
00005A8F  00740000          add [eax+eax+0x0],dh
00005A93  00540000          add [eax+eax+0x0],dl
00005A97  0000              add [eax],al
00005A99  0000              add [eax],al
00005A9B  007900            add [ecx+0x0],bh
00005A9E  0000              add [eax],al
00005AA0  59                pop ecx
00005AA1  0000              add [eax],al
00005AA3  0000              add [eax],al
00005AA5  0000              add [eax],al
00005AA7  007500            add [ebp+0x0],dh
00005AAA  0000              add [eax],al
00005AAC  55                push ebp
00005AAD  0000              add [eax],al
00005AAF  0000              add [eax],al
00005AB1  0000              add [eax],al
00005AB3  006900            add [ecx+0x0],ch
00005AB6  0000              add [eax],al
00005AB8  49                dec ecx
00005AB9  0000              add [eax],al
00005ABB  0000              add [eax],al
00005ABD  0000              add [eax],al
00005ABF  006F00            add [edi+0x0],ch
00005AC2  0000              add [eax],al
00005AC4  4F                dec edi
00005AC5  0000              add [eax],al
00005AC7  0000              add [eax],al
00005AC9  0000              add [eax],al
00005ACB  007000            add [eax+0x0],dh
00005ACE  0000              add [eax],al
00005AD0  50                push eax
00005AD1  0000              add [eax],al
00005AD3  0000              add [eax],al
00005AD5  0000              add [eax],al
00005AD7  005B00            add [ebx+0x0],bl
00005ADA  0000              add [eax],al
00005ADC  7B00              jpo 0x5ade
00005ADE  0000              add [eax],al
00005AE0  0000              add [eax],al
00005AE2  0000              add [eax],al
00005AE4  5D                pop ebp
00005AE5  0000              add [eax],al
00005AE7  007D00            add [ebp+0x0],bh
00005AEA  0000              add [eax],al
00005AEC  0000              add [eax],al
00005AEE  0000              add [eax],al
00005AF0  2001              and [ecx],al
00005AF2  0000              add [eax],al
00005AF4  2001              and [ecx],al
00005AF6  0000              add [eax],al
00005AF8  2001              and [ecx],al
00005AFA  0000              add [eax],al
00005AFC  260100            add [es:eax],eax
00005AFF  0026              add [esi],ah
00005B01  0100              add [eax],eax
00005B03  0027              add [edi],ah
00005B05  0100              add [eax],eax
00005B07  006100            add [ecx+0x0],ah
00005B0A  0000              add [eax],al
00005B0C  41                inc ecx
00005B0D  0000              add [eax],al
00005B0F  0000              add [eax],al
00005B11  0000              add [eax],al
00005B13  007300            add [ebx+0x0],dh
00005B16  0000              add [eax],al
00005B18  53                push ebx
00005B19  0000              add [eax],al
00005B1B  0000              add [eax],al
00005B1D  0000              add [eax],al
00005B1F  00640000          add [eax+eax+0x0],ah
00005B23  00440000          add [eax+eax+0x0],al
00005B27  0000              add [eax],al
00005B29  0000              add [eax],al
00005B2B  006600            add [esi+0x0],ah
00005B2E  0000              add [eax],al
00005B30  46                inc esi
00005B31  0000              add [eax],al
00005B33  0000              add [eax],al
00005B35  0000              add [eax],al
00005B37  006700            add [edi+0x0],ah
00005B3A  0000              add [eax],al
00005B3C  47                inc edi
00005B3D  0000              add [eax],al
00005B3F  0000              add [eax],al
00005B41  0000              add [eax],al
00005B43  006800            add [eax+0x0],ch
00005B46  0000              add [eax],al
00005B48  48                dec eax
00005B49  0000              add [eax],al
00005B4B  0000              add [eax],al
00005B4D  0000              add [eax],al
00005B4F  006A00            add [edx+0x0],ch
00005B52  0000              add [eax],al
00005B54  4A                dec edx
00005B55  0000              add [eax],al
00005B57  0000              add [eax],al
00005B59  0000              add [eax],al
00005B5B  006B00            add [ebx+0x0],ch
00005B5E  0000              add [eax],al
00005B60  4B                dec ebx
00005B61  0000              add [eax],al
00005B63  0000              add [eax],al
00005B65  0000              add [eax],al
00005B67  006C0000          add [eax+eax+0x0],ch
00005B6B  004C0000          add [eax+eax+0x0],cl
00005B6F  0000              add [eax],al
00005B71  0000              add [eax],al
00005B73  003B              add [ebx],bh
00005B75  0000              add [eax],al
00005B77  003A              add [edx],bh
00005B79  0000              add [eax],al
00005B7B  0000              add [eax],al
00005B7D  0000              add [eax],al
00005B7F  0027              add [edi],ah
00005B81  0000              add [eax],al
00005B83  0022              add [edx],ah
00005B85  0000              add [eax],al
00005B87  0000              add [eax],al
00005B89  0000              add [eax],al
00005B8B  006000            add [eax+0x0],ah
00005B8E  0000              add [eax],al
00005B90  7E00              jng 0x5b92
00005B92  0000              add [eax],al
00005B94  0000              add [eax],al
00005B96  0000              add [eax],al
00005B98  2401              and al,0x1
00005B9A  0000              add [eax],al
00005B9C  2401              and al,0x1
00005B9E  0000              add [eax],al
00005BA0  0000              add [eax],al
00005BA2  0000              add [eax],al
00005BA4  5C                pop esp
00005BA5  0000              add [eax],al
00005BA7  007C0000          add [eax+eax+0x0],bh
00005BAB  0000              add [eax],al
00005BAD  0000              add [eax],al
00005BAF  007A00            add [edx+0x0],bh
00005BB2  0000              add [eax],al
00005BB4  5A                pop edx
00005BB5  0000              add [eax],al
00005BB7  0000              add [eax],al
00005BB9  0000              add [eax],al
00005BBB  007800            add [eax+0x0],bh
00005BBE  0000              add [eax],al
00005BC0  58                pop eax
00005BC1  0000              add [eax],al
00005BC3  0000              add [eax],al
00005BC5  0000              add [eax],al
00005BC7  006300            add [ebx+0x0],ah
00005BCA  0000              add [eax],al
00005BCC  43                inc ebx
00005BCD  0000              add [eax],al
00005BCF  0000              add [eax],al
00005BD1  0000              add [eax],al
00005BD3  007600            add [esi+0x0],dh
00005BD6  0000              add [eax],al
00005BD8  56                push esi
00005BD9  0000              add [eax],al
00005BDB  0000              add [eax],al
00005BDD  0000              add [eax],al
00005BDF  006200            add [edx+0x0],ah
00005BE2  0000              add [eax],al
00005BE4  42                inc edx
00005BE5  0000              add [eax],al
00005BE7  0000              add [eax],al
00005BE9  0000              add [eax],al
00005BEB  006E00            add [esi+0x0],ch
00005BEE  0000              add [eax],al
00005BF0  4E                dec esi
00005BF1  0000              add [eax],al
00005BF3  0000              add [eax],al
00005BF5  0000              add [eax],al
00005BF7  006D00            add [ebp+0x0],ch
00005BFA  0000              add [eax],al
00005BFC  4D                dec ebp
00005BFD  0000              add [eax],al
00005BFF  0000              add [eax],al
00005C01  0000              add [eax],al
00005C03  002C00            add [eax+eax],ch
00005C06  0000              add [eax],al
00005C08  3C00              cmp al,0x0
00005C0A  0000              add [eax],al
00005C0C  0000              add [eax],al
00005C0E  0000              add [eax],al
00005C10  2E0000            add [cs:eax],al
00005C13  003E              add [esi],bh
00005C15  0000              add [eax],al
00005C17  0000              add [eax],al
00005C19  0000              add [eax],al
00005C1B  002F              add [edi],ch
00005C1D  0000              add [eax],al
00005C1F  003F              add [edi],bh
00005C21  0000              add [eax],al
00005C23  002F              add [edi],ch
00005C25  0000              add [eax],al
00005C27  002501000025      add [0x25000001],ah
00005C2D  0100              add [eax],eax
00005C2F  0000              add [eax],al
00005C31  0000              add [eax],al
00005C33  002A              add [edx],ch
00005C35  0000              add [eax],al
00005C37  002A              add [edx],ch
00005C39  0000              add [eax],al
00005C3B  0000              add [eax],al
00005C3D  0000              add [eax],al
00005C3F  0028              add [eax],ch
00005C41  0100              add [eax],eax
00005C43  0028              add [eax],ch
00005C45  0100              add [eax],eax
00005C47  0029              add [ecx],ch
00005C49  0100              add [eax],eax
00005C4B  0020              add [eax],ah
00005C4D  0000              add [eax],al
00005C4F  0020              add [eax],ah
00005C51  0000              add [eax],al
00005C53  0000              add [eax],al
00005C55  0000              add [eax],al
00005C57  004001            add [eax+0x1],al
00005C5A  0000              add [eax],al
00005C5C  40                inc eax
00005C5D  0100              add [eax],eax
00005C5F  0000              add [eax],al
00005C61  0000              add [eax],al
00005C63  0010              add [eax],dl
00005C65  0100              add [eax],eax
00005C67  0010              add [eax],dl
00005C69  0100              add [eax],eax
00005C6B  0000              add [eax],al
00005C6D  0000              add [eax],al
00005C6F  0011              add [ecx],dl
00005C71  0100              add [eax],eax
00005C73  0011              add [ecx],dl
00005C75  0100              add [eax],eax
00005C77  0000              add [eax],al
00005C79  0000              add [eax],al
00005C7B  0012              add [edx],dl
00005C7D  0100              add [eax],eax
00005C7F  0012              add [edx],dl
00005C81  0100              add [eax],eax
00005C83  0000              add [eax],al
00005C85  0000              add [eax],al
00005C87  0013              add [ebx],dl
00005C89  0100              add [eax],eax
00005C8B  0013              add [ebx],dl
00005C8D  0100              add [eax],eax
00005C8F  0000              add [eax],al
00005C91  0000              add [eax],al
00005C93  001401            add [ecx+eax],dl
00005C96  0000              add [eax],al
00005C98  1401              adc al,0x1
00005C9A  0000              add [eax],al
00005C9C  0000              add [eax],al
00005C9E  0000              add [eax],al
00005CA0  1501000015        adc eax,0x15000001
00005CA5  0100              add [eax],eax
00005CA7  0000              add [eax],al
00005CA9  0000              add [eax],al
00005CAB  0016              add [esi],dl
00005CAD  0100              add [eax],eax
00005CAF  0016              add [esi],dl
00005CB1  0100              add [eax],eax
00005CB3  0000              add [eax],al
00005CB5  0000              add [eax],al
00005CB7  0017              add [edi],dl
00005CB9  0100              add [eax],eax
00005CBB  0017              add [edi],dl
00005CBD  0100              add [eax],eax
00005CBF  0000              add [eax],al
00005CC1  0000              add [eax],al
00005CC3  0018              add [eax],bl
00005CC5  0100              add [eax],eax
00005CC7  0018              add [eax],bl
00005CC9  0100              add [eax],eax
00005CCB  0000              add [eax],al
00005CCD  0000              add [eax],al
00005CCF  0019              add [ecx],bl
00005CD1  0100              add [eax],eax
00005CD3  0019              add [ecx],bl
00005CD5  0100              add [eax],eax
00005CD7  0000              add [eax],al
00005CD9  0000              add [eax],al
00005CDB  004101            add [ecx+0x1],al
00005CDE  0000              add [eax],al
00005CE0  41                inc ecx
00005CE1  0100              add [eax],eax
00005CE3  0000              add [eax],al
00005CE5  0000              add [eax],al
00005CE7  005201            add [edx+0x1],dl
00005CEA  0000              add [eax],al
00005CEC  52                push edx
00005CED  0100              add [eax],eax
00005CEF  0000              add [eax],al
00005CF1  0000              add [eax],al
00005CF3  0037              add [edi],dh
00005CF5  0000              add [eax],al
00005CF7  0037              add [edi],dh
00005CF9  0000              add [eax],al
00005CFB  0001              add [ecx],al
00005CFD  0100              add [eax],eax
00005CFF  0038              add [eax],bh
00005D01  0000              add [eax],al
00005D03  0038              add [eax],bh
00005D05  0000              add [eax],al
00005D07  0003              add [ebx],al
00005D09  0100              add [eax],eax
00005D0B  0039              add [ecx],bh
00005D0D  0000              add [eax],al
00005D0F  0039              add [ecx],bh
00005D11  0000              add [eax],al
00005D13  0007              add [edi],al
00005D15  0100              add [eax],eax
00005D17  002D0000002D      add [0x2d000000],ch
00005D1D  0000              add [eax],al
00005D1F  0000              add [eax],al
00005D21  0000              add [eax],al
00005D23  003400            add [eax+eax],dh
00005D26  0000              add [eax],al
00005D28  3400              xor al,0x0
00005D2A  0000              add [eax],al
00005D2C  0501000035        add eax,0x35000001
00005D31  0000              add [eax],al
00005D33  003500000000      add [0x0],dh
00005D39  0000              add [eax],al
00005D3B  0036              add [esi],dh
00005D3D  0000              add [eax],al
00005D3F  0036              add [esi],dh
00005D41  0000              add [eax],al
00005D43  0006              add [esi],al
00005D45  0100              add [eax],eax
00005D47  002B              add [ebx],ch
00005D49  0000              add [eax],al
00005D4B  002B              add [ebx],ch
00005D4D  0000              add [eax],al
00005D4F  0000              add [eax],al
00005D51  0000              add [eax],al
00005D53  0031              add [ecx],dh
00005D55  0000              add [eax],al
00005D57  0031              add [ecx],dh
00005D59  0000              add [eax],al
00005D5B  0002              add [edx],al
00005D5D  0100              add [eax],eax
00005D5F  0032              add [edx],dh
00005D61  0000              add [eax],al
00005D63  0032              add [edx],dh
00005D65  0000              add [eax],al
00005D67  000401            add [ecx+eax],al
00005D6A  0000              add [eax],al
00005D6C  3300              xor eax,[eax]
00005D6E  0000              add [eax],al
00005D70  3300              xor eax,[eax]
00005D72  0000              add [eax],al
00005D74  0801              or [ecx],al
00005D76  0000              add [eax],al
00005D78  3000              xor [eax],al
00005D7A  0000              add [eax],al
00005D7C  3000              xor [eax],al
00005D7E  0000              add [eax],al
00005D80  0A01              or al,[ecx]
00005D82  0000              add [eax],al
00005D84  2E0000            add [cs:eax],al
00005D87  002E              add [esi],ch
00005D89  0000              add [eax],al
00005D8B  0009              add [ecx],cl
00005D8D  0100              add [eax],eax
00005D8F  0000              add [eax],al
00005D91  0000              add [eax],al
00005D93  0000              add [eax],al
00005D95  0000              add [eax],al
00005D97  0000              add [eax],al
00005D99  0000              add [eax],al
00005D9B  0000              add [eax],al
00005D9D  0000              add [eax],al
00005D9F  0000              add [eax],al
00005DA1  0000              add [eax],al
00005DA3  0000              add [eax],al
00005DA5  0000              add [eax],al
00005DA7  0000              add [eax],al
00005DA9  0000              add [eax],al
00005DAB  0000              add [eax],al
00005DAD  0000              add [eax],al
00005DAF  0000              add [eax],al
00005DB1  0000              add [eax],al
00005DB3  001A              add [edx],bl
00005DB5  0100              add [eax],eax
00005DB7  001A              add [edx],bl
00005DB9  0100              add [eax],eax
00005DBB  0000              add [eax],al
00005DBD  0000              add [eax],al
00005DBF  001B              add [ebx],bl
00005DC1  0100              add [eax],eax
00005DC3  001B              add [ebx],bl
00005DC5  0100              add [eax],eax
00005DC7  0000              add [eax],al
00005DC9  0000              add [eax],al
00005DCB  0000              add [eax],al
00005DCD  0000              add [eax],al
00005DCF  0000              add [eax],al
00005DD1  0000              add [eax],al
00005DD3  0000              add [eax],al
00005DD5  0000              add [eax],al
00005DD7  0000              add [eax],al
00005DD9  0000              add [eax],al
00005DDB  0000              add [eax],al
00005DDD  0000              add [eax],al
00005DDF  0000              add [eax],al
00005DE1  0000              add [eax],al
00005DE3  0000              add [eax],al
00005DE5  0000              add [eax],al
00005DE7  0000              add [eax],al
00005DE9  0000              add [eax],al
00005DEB  0033              add [ebx],dh
00005DED  0100              add [eax],eax
00005DEF  0000              add [eax],al
00005DF1  0000              add [eax],al
00005DF3  0000              add [eax],al
00005DF5  0000              add [eax],al
00005DF7  003401            add [ecx+eax],dh
00005DFA  0000              add [eax],al
00005DFC  0000              add [eax],al
00005DFE  0000              add [eax],al
00005E00  0000              add [eax],al
00005E02  0000              add [eax],al
00005E04  3501000000        xor eax,0x1
00005E09  0000              add [eax],al
00005E0B  0000              add [eax],al
00005E0D  0000              add [eax],al
00005E0F  0000              add [eax],al
00005E11  0000              add [eax],al
00005E13  0000              add [eax],al
00005E15  0000              add [eax],al
00005E17  0000              add [eax],al
00005E19  0000              add [eax],al
00005E1B  0000              add [eax],al
00005E1D  0000              add [eax],al
00005E1F  0000              add [eax],al
00005E21  0000              add [eax],al
00005E23  0000              add [eax],al
00005E25  0000              add [eax],al
00005E27  0000              add [eax],al
00005E29  0000              add [eax],al
00005E2B  0000              add [eax],al
00005E2D  0000              add [eax],al
00005E2F  0000              add [eax],al
00005E31  0000              add [eax],al
00005E33  0000              add [eax],al
00005E35  0000              add [eax],al
00005E37  0000              add [eax],al
00005E39  0000              add [eax],al
00005E3B  0000              add [eax],al
00005E3D  0000              add [eax],al
00005E3F  0000              add [eax],al
00005E41  0000              add [eax],al
00005E43  0000              add [eax],al
00005E45  0000              add [eax],al
00005E47  0000              add [eax],al
00005E49  0000              add [eax],al
00005E4B  0000              add [eax],al
00005E4D  0000              add [eax],al
00005E4F  0000              add [eax],al
00005E51  0000              add [eax],al
00005E53  0000              add [eax],al
00005E55  0000              add [eax],al
00005E57  0000              add [eax],al
00005E59  0000              add [eax],al
00005E5B  0000              add [eax],al
00005E5D  0000              add [eax],al
00005E5F  0000              add [eax],al
00005E61  0000              add [eax],al
00005E63  0000              add [eax],al
00005E65  0000              add [eax],al
00005E67  0000              add [eax],al
00005E69  0000              add [eax],al
00005E6B  0000              add [eax],al
00005E6D  0000              add [eax],al
00005E6F  0000              add [eax],al
00005E71  0000              add [eax],al
00005E73  0000              add [eax],al
00005E75  0000              add [eax],al
00005E77  0000              add [eax],al
00005E79  0000              add [eax],al
00005E7B  0000              add [eax],al
00005E7D  0000              add [eax],al
00005E7F  0000              add [eax],al
00005E81  0000              add [eax],al
00005E83  0000              add [eax],al
00005E85  0000              add [eax],al
00005E87  0000              add [eax],al
00005E89  0000              add [eax],al
00005E8B  0000              add [eax],al
00005E8D  0000              add [eax],al
00005E8F  0000              add [eax],al
00005E91  0000              add [eax],al
00005E93  0000              add [eax],al
00005E95  0000              add [eax],al
00005E97  0000              add [eax],al
00005E99  0000              add [eax],al
00005E9B  0000              add [eax],al
00005E9D  0000              add [eax],al
00005E9F  0000              add [eax],al
00005EA1  0000              add [eax],al
00005EA3  0000              add [eax],al
00005EA5  0000              add [eax],al
00005EA7  0000              add [eax],al
00005EA9  0000              add [eax],al
00005EAB  0000              add [eax],al
00005EAD  0000              add [eax],al
00005EAF  0000              add [eax],al
00005EB1  0000              add [eax],al
00005EB3  0000              add [eax],al
00005EB5  0000              add [eax],al
00005EB7  0000              add [eax],al
00005EB9  0000              add [eax],al
00005EBB  0000              add [eax],al
00005EBD  0000              add [eax],al
00005EBF  0000              add [eax],al
00005EC1  0000              add [eax],al
00005EC3  0000              add [eax],al
00005EC5  0000              add [eax],al
00005EC7  0000              add [eax],al
00005EC9  0000              add [eax],al
00005ECB  0000              add [eax],al
00005ECD  0000              add [eax],al
00005ECF  0000              add [eax],al
00005ED1  0000              add [eax],al
00005ED3  0000              add [eax],al
00005ED5  0000              add [eax],al
00005ED7  0000              add [eax],al
00005ED9  0000              add [eax],al
00005EDB  0000              add [eax],al
00005EDD  0000              add [eax],al
00005EDF  0000              add [eax],al
00005EE1  0000              add [eax],al
00005EE3  0000              add [eax],al
00005EE5  0000              add [eax],al
00005EE7  0000              add [eax],al
00005EE9  0000              add [eax],al
00005EEB  0000              add [eax],al
00005EED  0000              add [eax],al
00005EEF  0000              add [eax],al
00005EF1  0000              add [eax],al
00005EF3  0000              add [eax],al
00005EF5  0000              add [eax],al
00005EF7  0000              add [eax],al
00005EF9  0000              add [eax],al
00005EFB  0000              add [eax],al
00005EFD  0000              add [eax],al
00005EFF  0000              add [eax],al
00005F01  0000              add [eax],al
00005F03  0000              add [eax],al
00005F05  0000              add [eax],al
00005F07  0000              add [eax],al
00005F09  0000              add [eax],al
00005F0B  0000              add [eax],al
00005F0D  0000              add [eax],al
00005F0F  0000              add [eax],al
00005F11  0000              add [eax],al
00005F13  0000              add [eax],al
00005F15  0000              add [eax],al
00005F17  0000              add [eax],al
00005F19  0000              add [eax],al
00005F1B  0000              add [eax],al
00005F1D  0000              add [eax],al
00005F1F  0000              add [eax],al
00005F21  0000              add [eax],al
00005F23  0000              add [eax],al
00005F25  0000              add [eax],al
00005F27  0000              add [eax],al
00005F29  0000              add [eax],al
00005F2B  0000              add [eax],al
00005F2D  0000              add [eax],al
00005F2F  0000              add [eax],al
00005F31  0000              add [eax],al
00005F33  0000              add [eax],al
00005F35  0000              add [eax],al
00005F37  0000              add [eax],al
00005F39  0000              add [eax],al
00005F3B  0000              add [eax],al
00005F3D  0000              add [eax],al
00005F3F  0000              add [eax],al
00005F41  0000              add [eax],al
00005F43  0000              add [eax],al
00005F45  0000              add [eax],al
00005F47  0000              add [eax],al
00005F49  0000              add [eax],al
00005F4B  0000              add [eax],al
00005F4D  0000              add [eax],al
00005F4F  0000              add [eax],al
00005F51  0000              add [eax],al
00005F53  0000              add [eax],al
00005F55  0000              add [eax],al
00005F57  0000              add [eax],al
00005F59  0000              add [eax],al
00005F5B  0000              add [eax],al
00005F5D  0000              add [eax],al
00005F5F  0000              add [eax],al
00005F61  0000              add [eax],al
00005F63  0000              add [eax],al
00005F65  0000              add [eax],al
00005F67  0000              add [eax],al
00005F69  0000              add [eax],al
00005F6B  0000              add [eax],al
00005F6D  0000              add [eax],al
00005F6F  0000              add [eax],al
00005F71  0000              add [eax],al
00005F73  0000              add [eax],al
00005F75  0000              add [eax],al
00005F77  0000              add [eax],al
00005F79  0000              add [eax],al
00005F7B  0000              add [eax],al
00005F7D  0000              add [eax],al
00005F7F  0000              add [eax],al
00005F81  0000              add [eax],al
00005F83  0000              add [eax],al
00005F85  0000              add [eax],al
00005F87  0000              add [eax],al
00005F89  0000              add [eax],al
00005F8B  0000              add [eax],al
00005F8D  0000              add [eax],al
00005F8F  0000              add [eax],al
00005F91  0000              add [eax],al
00005F93  0000              add [eax],al
00005F95  0000              add [eax],al
00005F97  0000              add [eax],al
00005F99  0000              add [eax],al
00005F9B  0000              add [eax],al
00005F9D  0000              add [eax],al
00005F9F  00                db 0x00
